   1              		.cpu cortex-m4
   2              		.arch armv7e-m
   3              		.fpu softvfp
   4              		.eabi_attribute 20, 1
   5              		.eabi_attribute 21, 1
   6              		.eabi_attribute 23, 3
   7              		.eabi_attribute 24, 1
   8              		.eabi_attribute 25, 1
   9              		.eabi_attribute 26, 1
  10              		.eabi_attribute 30, 4
  11              		.eabi_attribute 34, 1
  12              		.eabi_attribute 18, 4
  13              		.file	"simpleserial.c"
  14              		.text
  15              	.Ltext0:
  16              		.cfi_sections	.debug_frame
  17              		.file 1 "./simpleserial/simpleserial.c"
  18              		.section	.text.ss_crc,"ax",%progbits
  19              		.align	1
  20              		.global	ss_crc
  21              		.syntax unified
  22              		.thumb
  23              		.thumb_func
  25              	ss_crc:
  26              	.LVL0:
  27              	.LFB0:
   1:./simpleserial/simpleserial.c **** // simpleserial.c
   2:./simpleserial/simpleserial.c **** 
   3:./simpleserial/simpleserial.c **** #include "simpleserial.h"
   4:./simpleserial/simpleserial.c **** #include <stdint.h>
   5:./simpleserial/simpleserial.c **** #include "hal.h"
   6:./simpleserial/simpleserial.c **** 
   7:./simpleserial/simpleserial.c **** 
   8:./simpleserial/simpleserial.c **** #define MAX_SS_CMDS 16
   9:./simpleserial/simpleserial.c **** static int num_commands = 0;
  10:./simpleserial/simpleserial.c **** 
  11:./simpleserial/simpleserial.c **** #define MAX_SS_LEN 256
  12:./simpleserial/simpleserial.c **** 
  13:./simpleserial/simpleserial.c **** //#define SS_VER_1_0 0
  14:./simpleserial/simpleserial.c **** //#define SS_VER_1_1 1
  15:./simpleserial/simpleserial.c **** //#define SS_VER_2_0 2
  16:./simpleserial/simpleserial.c **** 
  17:./simpleserial/simpleserial.c **** 
  18:./simpleserial/simpleserial.c **** // 0xA6 formerly 
  19:./simpleserial/simpleserial.c **** #define CW_CRC 0x4D 
  20:./simpleserial/simpleserial.c **** uint8_t ss_crc(uint8_t *buf, uint8_t len)
  21:./simpleserial/simpleserial.c **** {
  28              		.loc 1 21 1 view -0
  29              		.cfi_startproc
  30              		@ args = 0, pretend = 0, frame = 0
  31              		@ frame_needed = 0, uses_anonymous_args = 0
  32              		.loc 1 21 1 is_stmt 0 view .LVU1
  33 0000 10B5     		push	{r4, lr}
  34              	.LCFI0:
  35              		.cfi_def_cfa_offset 8
  36              		.cfi_offset 4, -8
  37              		.cfi_offset 14, -4
  38              		.loc 1 21 1 view .LVU2
  39 0002 0246     		mov	r2, r0
  22:./simpleserial/simpleserial.c **** 	unsigned int k = 0;
  40              		.loc 1 22 2 is_stmt 1 view .LVU3
  41              	.LVL1:
  23:./simpleserial/simpleserial.c **** 	uint8_t crc = 0x00;
  42              		.loc 1 23 2 view .LVU4
  24:./simpleserial/simpleserial.c **** 	while (len--) {
  43              		.loc 1 24 2 view .LVU5
  44 0004 0144     		add	r1, r1, r0
  45              	.LVL2:
  23:./simpleserial/simpleserial.c **** 	uint8_t crc = 0x00;
  46              		.loc 1 23 10 is_stmt 0 view .LVU6
  47 0006 0020     		movs	r0, #0
  48              	.LVL3:
  49              	.L2:
  50              		.loc 1 24 9 is_stmt 1 view .LVU7
  51              		.loc 1 24 9 is_stmt 0 view .LVU8
  52 0008 8A42     		cmp	r2, r1
  53 000a 00D1     		bne	.L6
  25:./simpleserial/simpleserial.c **** 		crc ^= *buf++;
  26:./simpleserial/simpleserial.c **** 		for (k = 0; k < 8; k++) {
  27:./simpleserial/simpleserial.c **** 			crc = crc & 0x80 ? (crc << 1) ^ CW_CRC: crc << 1;
  28:./simpleserial/simpleserial.c **** 		}
  29:./simpleserial/simpleserial.c **** 	}
  30:./simpleserial/simpleserial.c **** 	return crc;
  54              		.loc 1 30 2 is_stmt 1 view .LVU9
  31:./simpleserial/simpleserial.c **** 
  32:./simpleserial/simpleserial.c **** }
  55              		.loc 1 32 1 is_stmt 0 view .LVU10
  56 000c 10BD     		pop	{r4, pc}
  57              	.L6:
  25:./simpleserial/simpleserial.c **** 		crc ^= *buf++;
  58              		.loc 1 25 3 is_stmt 1 view .LVU11
  59              	.LVL4:
  25:./simpleserial/simpleserial.c **** 		crc ^= *buf++;
  60              		.loc 1 25 7 is_stmt 0 view .LVU12
  61 000e 12F8013B 		ldrb	r3, [r2], #1	@ zero_extendqisi2
  62              	.LVL5:
  25:./simpleserial/simpleserial.c **** 		crc ^= *buf++;
  63              		.loc 1 25 7 view .LVU13
  64 0012 0824     		movs	r4, #8
  65 0014 5840     		eors	r0, r0, r3
  66              	.LVL6:
  26:./simpleserial/simpleserial.c **** 			crc = crc & 0x80 ? (crc << 1) ^ CW_CRC: crc << 1;
  67              		.loc 1 26 3 is_stmt 1 view .LVU14
  26:./simpleserial/simpleserial.c **** 			crc = crc & 0x80 ? (crc << 1) ^ CW_CRC: crc << 1;
  68              		.loc 1 26 17 view .LVU15
  69              	.L5:
  27:./simpleserial/simpleserial.c **** 		}
  70              		.loc 1 27 4 view .LVU16
  27:./simpleserial/simpleserial.c **** 		}
  71              		.loc 1 27 8 is_stmt 0 view .LVU17
  72 0016 10F0800F 		tst	r0, #128
  73 001a 4FEA4003 		lsl	r3, r0, #1
  27:./simpleserial/simpleserial.c **** 		}
  74              		.loc 1 27 34 view .LVU18
  75 001e 18BF     		it	ne
  76 0020 83F04D03 		eorne	r3, r3, #77
  26:./simpleserial/simpleserial.c **** 			crc = crc & 0x80 ? (crc << 1) ^ CW_CRC: crc << 1;
  77              		.loc 1 26 17 view .LVU19
  78 0024 013C     		subs	r4, r4, #1
  79              	.LVL7:
  27:./simpleserial/simpleserial.c **** 		}
  80              		.loc 1 27 8 view .LVU20
  81 0026 D8B2     		uxtb	r0, r3
  82              	.LVL8:
  26:./simpleserial/simpleserial.c **** 			crc = crc & 0x80 ? (crc << 1) ^ CW_CRC: crc << 1;
  83              		.loc 1 26 23 is_stmt 1 view .LVU21
  26:./simpleserial/simpleserial.c **** 			crc = crc & 0x80 ? (crc << 1) ^ CW_CRC: crc << 1;
  84              		.loc 1 26 17 view .LVU22
  85 0028 F5D1     		bne	.L5
  86 002a EDE7     		b	.L2
  87              		.cfi_endproc
  88              	.LFE0:
  90              		.section	.text.hex_decode,"ax",%progbits
  91              		.align	1
  92              		.global	hex_decode
  93              		.syntax unified
  94              		.thumb
  95              		.thumb_func
  97              	hex_decode:
  98              	.LVL9:
  99              	.LFB1:
  33:./simpleserial/simpleserial.c **** 
  34:./simpleserial/simpleserial.c **** // [B_STUFF, CMD, SCMD, LEN, B_STUFF, DATA..., CRC, TERM]
  35:./simpleserial/simpleserial.c **** 
  36:./simpleserial/simpleserial.c **** //#define SS_VER SS_VER_2_0
  37:./simpleserial/simpleserial.c **** #if SS_VER == SS_VER_2_0
  38:./simpleserial/simpleserial.c **** #error "SS_VER_2_0 is deprecated! Use SS_VER_2_1 instead."
  39:./simpleserial/simpleserial.c **** #elif SS_VER == SS_VER_2_1
  40:./simpleserial/simpleserial.c **** 
  41:./simpleserial/simpleserial.c **** int hex_decode(int len, char* ascii_buf, uint8_t* data_buf)
  42:./simpleserial/simpleserial.c **** {
 100              		.loc 1 42 1 view -0
 101              		.cfi_startproc
 102              		@ args = 0, pretend = 0, frame = 0
 103              		@ frame_needed = 0, uses_anonymous_args = 0
  43:./simpleserial/simpleserial.c **** 	for(int i = 0; i < len; i++)
 104              		.loc 1 43 2 view .LVU24
 105              	.LBB2:
 106              		.loc 1 43 6 view .LVU25
 107              		.loc 1 43 6 is_stmt 0 view .LVU26
 108              	.LBE2:
  42:./simpleserial/simpleserial.c **** 	for(int i = 0; i < len; i++)
 109              		.loc 1 42 1 view .LVU27
 110 0000 F0B5     		push	{r4, r5, r6, r7, lr}
 111              	.LCFI1:
 112              		.cfi_def_cfa_offset 20
 113              		.cfi_offset 4, -20
 114              		.cfi_offset 5, -16
 115              		.cfi_offset 6, -12
 116              		.cfi_offset 7, -8
 117              		.cfi_offset 14, -4
 118              	.LBB7:
 119              		.loc 1 43 10 view .LVU28
 120 0002 0025     		movs	r5, #0
 121              	.LBB3:
  44:./simpleserial/simpleserial.c **** 	{
  45:./simpleserial/simpleserial.c **** 		char n_hi = ascii_buf[2*i];
  46:./simpleserial/simpleserial.c **** 		char n_lo = ascii_buf[2*i+1];
 122              		.loc 1 46 8 view .LVU29
 123 0004 4F1C     		adds	r7, r1, #1
 124              	.LVL10:
 125              	.L9:
 126              		.loc 1 46 8 view .LVU30
 127              	.LBE3:
  43:./simpleserial/simpleserial.c **** 	{
 128              		.loc 1 43 19 is_stmt 1 discriminator 1 view .LVU31
 129 0006 8542     		cmp	r5, r0
 130 0008 01DB     		blt	.L19
 131              	.LBE7:
  47:./simpleserial/simpleserial.c **** 
  48:./simpleserial/simpleserial.c **** 		if(n_lo >= '0' && n_lo <= '9')
  49:./simpleserial/simpleserial.c **** 			data_buf[i] = n_lo - '0';
  50:./simpleserial/simpleserial.c **** 		else if(n_lo >= 'A' && n_lo <= 'F')
  51:./simpleserial/simpleserial.c **** 			data_buf[i] = n_lo - 'A' + 10;
  52:./simpleserial/simpleserial.c **** 		else if(n_lo >= 'a' && n_lo <= 'f')
  53:./simpleserial/simpleserial.c **** 			data_buf[i] = n_lo - 'a' + 10;
  54:./simpleserial/simpleserial.c **** 		else
  55:./simpleserial/simpleserial.c **** 			return 1;
  56:./simpleserial/simpleserial.c **** 
  57:./simpleserial/simpleserial.c **** 		if(n_hi >= '0' && n_hi <= '9')
  58:./simpleserial/simpleserial.c **** 			data_buf[i] |= (n_hi - '0') << 4;
  59:./simpleserial/simpleserial.c **** 		else if(n_hi >= 'A' && n_hi <= 'F')
  60:./simpleserial/simpleserial.c **** 			data_buf[i] |= (n_hi - 'A' + 10) << 4;
  61:./simpleserial/simpleserial.c **** 		else if(n_hi >= 'a' && n_hi <= 'f')
  62:./simpleserial/simpleserial.c **** 			data_buf[i] |= (n_hi - 'a' + 10) << 4;
  63:./simpleserial/simpleserial.c **** 		else
  64:./simpleserial/simpleserial.c **** 			return 1;
  65:./simpleserial/simpleserial.c **** 	}
  66:./simpleserial/simpleserial.c **** 
  67:./simpleserial/simpleserial.c **** 	return 0;
 132              		.loc 1 67 9 is_stmt 0 view .LVU32
 133 000a 0020     		movs	r0, #0
 134              	.LVL11:
 135              		.loc 1 67 9 view .LVU33
 136 000c 21E0     		b	.L8
 137              	.LVL12:
 138              	.L19:
 139              	.LBB8:
 140              	.LBB4:
  45:./simpleserial/simpleserial.c **** 		char n_lo = ascii_buf[2*i+1];
 141              		.loc 1 45 3 is_stmt 1 view .LVU34
  46:./simpleserial/simpleserial.c **** 
 142              		.loc 1 46 8 is_stmt 0 view .LVU35
 143 000e 17F81540 		ldrb	r4, [r7, r5, lsl #1]	@ zero_extendqisi2
  45:./simpleserial/simpleserial.c **** 		char n_lo = ascii_buf[2*i+1];
 144              		.loc 1 45 8 view .LVU36
 145 0012 11F81530 		ldrb	r3, [r1, r5, lsl #1]	@ zero_extendqisi2
 146              	.LVL13:
  46:./simpleserial/simpleserial.c **** 
 147              		.loc 1 46 3 is_stmt 1 view .LVU37
  48:./simpleserial/simpleserial.c **** 			data_buf[i] = n_lo - '0';
 148              		.loc 1 48 3 view .LVU38
  48:./simpleserial/simpleserial.c **** 			data_buf[i] = n_lo - '0';
 149              		.loc 1 48 18 is_stmt 0 view .LVU39
 150 0016 A4F13006 		sub	r6, r4, #48
 151 001a F6B2     		uxtb	r6, r6
  48:./simpleserial/simpleserial.c **** 			data_buf[i] = n_lo - '0';
 152              		.loc 1 48 5 view .LVU40
 153 001c 092E     		cmp	r6, #9
 154 001e 0CD8     		bhi	.L10
  49:./simpleserial/simpleserial.c **** 		else if(n_lo >= 'A' && n_lo <= 'F')
 155              		.loc 1 49 4 is_stmt 1 view .LVU41
  49:./simpleserial/simpleserial.c **** 		else if(n_lo >= 'A' && n_lo <= 'F')
 156              		.loc 1 49 16 is_stmt 0 view .LVU42
 157 0020 1670     		strb	r6, [r2]
 158              	.LVL14:
 159              	.L11:
  57:./simpleserial/simpleserial.c **** 			data_buf[i] |= (n_hi - '0') << 4;
 160              		.loc 1 57 3 is_stmt 1 view .LVU43
  57:./simpleserial/simpleserial.c **** 			data_buf[i] |= (n_hi - '0') << 4;
 161              		.loc 1 57 18 is_stmt 0 view .LVU44
 162 0022 A3F13004 		sub	r4, r3, #48
  57:./simpleserial/simpleserial.c **** 			data_buf[i] |= (n_hi - '0') << 4;
 163              		.loc 1 57 5 view .LVU45
 164 0026 E6B2     		uxtb	r6, r4
 165 0028 092E     		cmp	r6, #9
 166 002a 15D8     		bhi	.L15
 167              	.L22:
  60:./simpleserial/simpleserial.c **** 		else if(n_hi >= 'a' && n_hi <= 'f')
 168              		.loc 1 60 16 view .LVU46
 169 002c 1378     		ldrb	r3, [r2]	@ zero_extendqisi2
 170              	.LVL15:
  60:./simpleserial/simpleserial.c **** 		else if(n_hi >= 'a' && n_hi <= 'f')
 171              		.loc 1 60 16 view .LVU47
 172 002e 43EA0413 		orr	r3, r3, r4, lsl #4
 173              	.L21:
  62:./simpleserial/simpleserial.c **** 		else
 174              		.loc 1 62 16 view .LVU48
 175 0032 1370     		strb	r3, [r2]
 176              	.LBE4:
  43:./simpleserial/simpleserial.c **** 	{
 177              		.loc 1 43 27 is_stmt 1 view .LVU49
 178 0034 0135     		adds	r5, r5, #1
 179              	.LVL16:
  43:./simpleserial/simpleserial.c **** 	{
 180              		.loc 1 43 27 is_stmt 0 view .LVU50
 181 0036 0132     		adds	r2, r2, #1
 182 0038 E5E7     		b	.L9
 183              	.LVL17:
 184              	.L10:
 185              	.LBB5:
  50:./simpleserial/simpleserial.c **** 			data_buf[i] = n_lo - 'A' + 10;
 186              		.loc 1 50 8 is_stmt 1 view .LVU51
  50:./simpleserial/simpleserial.c **** 			data_buf[i] = n_lo - 'A' + 10;
 187              		.loc 1 50 10 is_stmt 0 view .LVU52
 188 003a A4F14106 		sub	r6, r4, #65
 189 003e 052E     		cmp	r6, #5
 190 0040 02D8     		bhi	.L12
  51:./simpleserial/simpleserial.c **** 		else if(n_lo >= 'a' && n_lo <= 'f')
 191              		.loc 1 51 4 is_stmt 1 view .LVU53
  51:./simpleserial/simpleserial.c **** 		else if(n_lo >= 'a' && n_lo <= 'f')
 192              		.loc 1 51 29 is_stmt 0 view .LVU54
 193 0042 373C     		subs	r4, r4, #55
 194              	.LVL18:
 195              	.L20:
  53:./simpleserial/simpleserial.c **** 		else
 196              		.loc 1 53 16 view .LVU55
 197 0044 1470     		strb	r4, [r2]
 198              	.LVL19:
  53:./simpleserial/simpleserial.c **** 		else
 199              		.loc 1 53 16 view .LVU56
 200 0046 ECE7     		b	.L11
 201              	.LVL20:
 202              	.L12:
  52:./simpleserial/simpleserial.c **** 			data_buf[i] = n_lo - 'a' + 10;
 203              		.loc 1 52 8 is_stmt 1 view .LVU57
  52:./simpleserial/simpleserial.c **** 			data_buf[i] = n_lo - 'a' + 10;
 204              		.loc 1 52 10 is_stmt 0 view .LVU58
 205 0048 A4F16106 		sub	r6, r4, #97
 206 004c 052E     		cmp	r6, #5
 207 004e 01D9     		bls	.L13
 208              	.LVL21:
 209              	.L18:
  55:./simpleserial/simpleserial.c **** 
 210              		.loc 1 55 11 view .LVU59
 211 0050 0120     		movs	r0, #1
 212              	.LVL22:
 213              	.L8:
  55:./simpleserial/simpleserial.c **** 
 214              		.loc 1 55 11 view .LVU60
 215              	.LBE5:
 216              	.LBE8:
  68:./simpleserial/simpleserial.c **** }
 217              		.loc 1 68 1 view .LVU61
 218 0052 F0BD     		pop	{r4, r5, r6, r7, pc}
 219              	.LVL23:
 220              	.L13:
 221              	.LBB9:
 222              	.LBB6:
  53:./simpleserial/simpleserial.c **** 		else
 223              		.loc 1 53 4 is_stmt 1 view .LVU62
  53:./simpleserial/simpleserial.c **** 		else
 224              		.loc 1 53 29 is_stmt 0 view .LVU63
 225 0054 573C     		subs	r4, r4, #87
 226              	.LVL24:
  53:./simpleserial/simpleserial.c **** 		else
 227              		.loc 1 53 29 view .LVU64
 228 0056 F5E7     		b	.L20
 229              	.LVL25:
 230              	.L15:
  59:./simpleserial/simpleserial.c **** 			data_buf[i] |= (n_hi - 'A' + 10) << 4;
 231              		.loc 1 59 8 is_stmt 1 view .LVU65
  59:./simpleserial/simpleserial.c **** 			data_buf[i] |= (n_hi - 'A' + 10) << 4;
 232              		.loc 1 59 10 is_stmt 0 view .LVU66
 233 0058 A3F14104 		sub	r4, r3, #65
 234 005c 052C     		cmp	r4, #5
 235 005e 02D8     		bhi	.L17
  60:./simpleserial/simpleserial.c **** 		else if(n_hi >= 'a' && n_hi <= 'f')
 236              		.loc 1 60 4 is_stmt 1 view .LVU67
  60:./simpleserial/simpleserial.c **** 		else if(n_hi >= 'a' && n_hi <= 'f')
 237              		.loc 1 60 31 is_stmt 0 view .LVU68
 238 0060 A3F13704 		sub	r4, r3, #55
 239 0064 E2E7     		b	.L22
 240              	.L17:
  61:./simpleserial/simpleserial.c **** 			data_buf[i] |= (n_hi - 'a' + 10) << 4;
 241              		.loc 1 61 8 is_stmt 1 view .LVU69
  61:./simpleserial/simpleserial.c **** 			data_buf[i] |= (n_hi - 'a' + 10) << 4;
 242              		.loc 1 61 10 is_stmt 0 view .LVU70
 243 0066 A3F16104 		sub	r4, r3, #97
 244 006a 052C     		cmp	r4, #5
 245 006c F0D8     		bhi	.L18
  62:./simpleserial/simpleserial.c **** 		else
 246              		.loc 1 62 4 is_stmt 1 view .LVU71
  62:./simpleserial/simpleserial.c **** 		else
 247              		.loc 1 62 16 is_stmt 0 view .LVU72
 248 006e 1478     		ldrb	r4, [r2]	@ zero_extendqisi2
  62:./simpleserial/simpleserial.c **** 		else
 249              		.loc 1 62 31 view .LVU73
 250 0070 573B     		subs	r3, r3, #87
 251              	.LVL26:
  62:./simpleserial/simpleserial.c **** 		else
 252              		.loc 1 62 16 view .LVU74
 253 0072 44EA0313 		orr	r3, r4, r3, lsl #4
 254              	.LVL27:
  62:./simpleserial/simpleserial.c **** 		else
 255              		.loc 1 62 16 view .LVU75
 256 0076 DCE7     		b	.L21
 257              	.LBE6:
 258              	.LBE9:
 259              		.cfi_endproc
 260              	.LFE1:
 262              		.section	.text.ss_puts,"ax",%progbits
 263              		.align	1
 264              		.global	ss_puts
 265              		.syntax unified
 266              		.thumb
 267              		.thumb_func
 269              	ss_puts:
 270              	.LVL28:
 271              	.LFB2:
  69:./simpleserial/simpleserial.c **** 
  70:./simpleserial/simpleserial.c **** typedef struct ss_cmd
  71:./simpleserial/simpleserial.c **** {
  72:./simpleserial/simpleserial.c **** 	char c;
  73:./simpleserial/simpleserial.c **** 	unsigned int len;
  74:./simpleserial/simpleserial.c **** 	uint8_t (*fp)(uint8_t, uint8_t, uint8_t, uint8_t *);
  75:./simpleserial/simpleserial.c **** } ss_cmd;
  76:./simpleserial/simpleserial.c **** static ss_cmd commands[MAX_SS_CMDS];
  77:./simpleserial/simpleserial.c **** 
  78:./simpleserial/simpleserial.c **** void ss_puts(char *x)
  79:./simpleserial/simpleserial.c **** {
 272              		.loc 1 79 1 is_stmt 1 view -0
 273              		.cfi_startproc
 274              		@ args = 0, pretend = 0, frame = 0
 275              		@ frame_needed = 0, uses_anonymous_args = 0
 276              		.loc 1 79 1 is_stmt 0 view .LVU77
 277 0000 10B5     		push	{r4, lr}
 278              	.LCFI2:
 279              		.cfi_def_cfa_offset 8
 280              		.cfi_offset 4, -8
 281              		.cfi_offset 14, -4
 282 0002 0446     		mov	r4, r0
 283              	.LVL29:
 284              	.L24:
  80:./simpleserial/simpleserial.c **** 	do {
 285              		.loc 1 80 2 is_stmt 1 discriminator 1 view .LVU78
  81:./simpleserial/simpleserial.c **** 		putch(*x);
 286              		.loc 1 81 3 discriminator 1 view .LVU79
 287 0004 2078     		ldrb	r0, [r4]	@ zero_extendqisi2
 288 0006 FFF7FEFF 		bl	putch
 289              	.LVL30:
  82:./simpleserial/simpleserial.c **** 	} while (*++x);
 290              		.loc 1 82 11 discriminator 1 view .LVU80
 291              		.loc 1 82 11 is_stmt 0 discriminator 1 view .LVU81
 292 000a 14F8013F 		ldrb	r3, [r4, #1]!	@ zero_extendqisi2
 293              	.LVL31:
 294              		.loc 1 82 11 discriminator 1 view .LVU82
 295 000e 002B     		cmp	r3, #0
 296 0010 F8D1     		bne	.L24
  83:./simpleserial/simpleserial.c **** }
 297              		.loc 1 83 1 view .LVU83
 298 0012 10BD     		pop	{r4, pc}
 299              		.loc 1 83 1 view .LVU84
 300              		.cfi_endproc
 301              	.LFE2:
 303              		.section	.text.stuff_data,"ax",%progbits
 304              		.align	1
 305              		.global	stuff_data
 306              		.syntax unified
 307              		.thumb
 308              		.thumb_func
 310              	stuff_data:
 311              	.LVL32:
 312              	.LFB5:
  84:./simpleserial/simpleserial.c **** 
  85:./simpleserial/simpleserial.c **** #define FRAME_BYTE 0x00
  86:./simpleserial/simpleserial.c **** 
  87:./simpleserial/simpleserial.c **** uint8_t check_version(uint8_t cmd, uint8_t scmd, uint8_t len, uint8_t *data)
  88:./simpleserial/simpleserial.c **** {
  89:./simpleserial/simpleserial.c **** 	uint8_t ver = SS_VER;
  90:./simpleserial/simpleserial.c **** 	simpleserial_put('r', 1, &ver);
  91:./simpleserial/simpleserial.c **** 	return SS_ERR_OK;
  92:./simpleserial/simpleserial.c **** }
  93:./simpleserial/simpleserial.c **** 
  94:./simpleserial/simpleserial.c **** uint8_t ss_get_commands(uint8_t cmd, uint8_t scmd, uint8_t len, uint8_t *data)
  95:./simpleserial/simpleserial.c **** {
  96:./simpleserial/simpleserial.c ****     uint8_t cmd_chars[MAX_SS_CMDS];
  97:./simpleserial/simpleserial.c ****     for (uint8_t i = 0; i < (num_commands & 0xFF); i++) {
  98:./simpleserial/simpleserial.c ****         cmd_chars[i] = commands[i].c;
  99:./simpleserial/simpleserial.c ****     }
 100:./simpleserial/simpleserial.c **** 
 101:./simpleserial/simpleserial.c ****     simpleserial_put('r', num_commands & 0xFF, (void *)cmd_chars);
 102:./simpleserial/simpleserial.c ****     return 0x00;
 103:./simpleserial/simpleserial.c **** 
 104:./simpleserial/simpleserial.c **** }
 105:./simpleserial/simpleserial.c **** 
 106:./simpleserial/simpleserial.c **** uint8_t stuff_data(uint8_t *buf, uint8_t len)
 107:./simpleserial/simpleserial.c **** {
 313              		.loc 1 107 1 is_stmt 1 view -0
 314              		.cfi_startproc
 315              		@ args = 0, pretend = 0, frame = 0
 316              		@ frame_needed = 0, uses_anonymous_args = 0
 108:./simpleserial/simpleserial.c **** 	uint8_t i = 1;
 317              		.loc 1 108 2 view .LVU86
 109:./simpleserial/simpleserial.c **** 	uint8_t last = 0;
 318              		.loc 1 109 2 view .LVU87
 110:./simpleserial/simpleserial.c **** 	for (; i < len; i++) {
 319              		.loc 1 110 2 view .LVU88
 107:./simpleserial/simpleserial.c **** 	uint8_t i = 1;
 320              		.loc 1 107 1 is_stmt 0 view .LVU89
 321 0000 30B5     		push	{r4, r5, lr}
 322              	.LCFI3:
 323              		.cfi_def_cfa_offset 12
 324              		.cfi_offset 4, -12
 325              		.cfi_offset 5, -8
 326              		.cfi_offset 14, -4
 109:./simpleserial/simpleserial.c **** 	uint8_t last = 0;
 327              		.loc 1 109 10 view .LVU90
 328 0002 0022     		movs	r2, #0
 329 0004 0446     		mov	r4, r0
 108:./simpleserial/simpleserial.c **** 	uint8_t last = 0;
 330              		.loc 1 108 10 view .LVU91
 331 0006 0123     		movs	r3, #1
 332              	.LVL33:
 333              	.L27:
 334              		.loc 1 110 11 is_stmt 1 discriminator 1 view .LVU92
 335 0008 8B42     		cmp	r3, r1
 336 000a 01D3     		bcc	.L29
 111:./simpleserial/simpleserial.c **** 		if (buf[i] == FRAME_BYTE) {
 112:./simpleserial/simpleserial.c **** 			buf[last] = i - last;
 113:./simpleserial/simpleserial.c **** 			last = i;
 114:./simpleserial/simpleserial.c **** 		}
 115:./simpleserial/simpleserial.c **** 	}
 116:./simpleserial/simpleserial.c **** 	return 0x00;
 337              		.loc 1 116 2 view .LVU93
 117:./simpleserial/simpleserial.c **** }
 338              		.loc 1 117 1 is_stmt 0 view .LVU94
 339 000c 0020     		movs	r0, #0
 340              	.LVL34:
 341              		.loc 1 117 1 view .LVU95
 342 000e 30BD     		pop	{r4, r5, pc}
 343              	.LVL35:
 344              	.L29:
 111:./simpleserial/simpleserial.c **** 		if (buf[i] == FRAME_BYTE) {
 345              		.loc 1 111 3 is_stmt 1 view .LVU96
 111:./simpleserial/simpleserial.c **** 		if (buf[i] == FRAME_BYTE) {
 346              		.loc 1 111 6 is_stmt 0 view .LVU97
 347 0010 14F8015F 		ldrb	r5, [r4, #1]!	@ zero_extendqisi2
 348 0014 15B9     		cbnz	r5, .L28
 112:./simpleserial/simpleserial.c **** 			last = i;
 349              		.loc 1 112 4 is_stmt 1 view .LVU98
 112:./simpleserial/simpleserial.c **** 			last = i;
 350              		.loc 1 112 18 is_stmt 0 view .LVU99
 351 0016 9D1A     		subs	r5, r3, r2
 112:./simpleserial/simpleserial.c **** 			last = i;
 352              		.loc 1 112 14 view .LVU100
 353 0018 8554     		strb	r5, [r0, r2]
 113:./simpleserial/simpleserial.c **** 		}
 354              		.loc 1 113 4 is_stmt 1 view .LVU101
 355              	.LVL36:
 112:./simpleserial/simpleserial.c **** 			last = i;
 356              		.loc 1 112 14 is_stmt 0 view .LVU102
 357 001a 1A46     		mov	r2, r3
 358              	.LVL37:
 359              	.L28:
 110:./simpleserial/simpleserial.c **** 		if (buf[i] == FRAME_BYTE) {
 360              		.loc 1 110 19 is_stmt 1 view .LVU103
 361 001c 0133     		adds	r3, r3, #1
 362              	.LVL38:
 110:./simpleserial/simpleserial.c **** 		if (buf[i] == FRAME_BYTE) {
 363              		.loc 1 110 19 is_stmt 0 view .LVU104
 364 001e DBB2     		uxtb	r3, r3
 365              	.LVL39:
 110:./simpleserial/simpleserial.c **** 		if (buf[i] == FRAME_BYTE) {
 366              		.loc 1 110 19 view .LVU105
 367 0020 F2E7     		b	.L27
 368              		.cfi_endproc
 369              	.LFE5:
 371              		.section	.text.unstuff_data,"ax",%progbits
 372              		.align	1
 373              		.global	unstuff_data
 374              		.syntax unified
 375              		.thumb
 376              		.thumb_func
 378              	unstuff_data:
 379              	.LVL40:
 380              	.LFB6:
 118:./simpleserial/simpleserial.c **** 
 119:./simpleserial/simpleserial.c **** uint8_t unstuff_data(uint8_t *buf, uint8_t len)
 120:./simpleserial/simpleserial.c **** {
 381              		.loc 1 120 1 is_stmt 1 view -0
 382              		.cfi_startproc
 383              		@ args = 0, pretend = 0, frame = 0
 384              		@ frame_needed = 0, uses_anonymous_args = 0
 121:./simpleserial/simpleserial.c **** 	uint8_t next = buf[0];
 385              		.loc 1 121 2 view .LVU107
 120:./simpleserial/simpleserial.c **** 	uint8_t next = buf[0];
 386              		.loc 1 120 1 is_stmt 0 view .LVU108
 387 0000 30B5     		push	{r4, r5, lr}
 388              	.LCFI4:
 389              		.cfi_def_cfa_offset 12
 390              		.cfi_offset 4, -12
 391              		.cfi_offset 5, -8
 392              		.cfi_offset 14, -4
 393              		.loc 1 121 10 view .LVU109
 394 0002 0478     		ldrb	r4, [r0]	@ zero_extendqisi2
 395              	.LVL41:
 122:./simpleserial/simpleserial.c **** 	buf[0] = 0x00;
 396              		.loc 1 122 2 is_stmt 1 view .LVU110
 397              		.loc 1 122 9 is_stmt 0 view .LVU111
 398 0004 0025     		movs	r5, #0
 120:./simpleserial/simpleserial.c **** 	uint8_t next = buf[0];
 399              		.loc 1 120 1 view .LVU112
 400 0006 0246     		mov	r2, r0
 401              		.loc 1 122 9 view .LVU113
 402 0008 0570     		strb	r5, [r0]
 123:./simpleserial/simpleserial.c **** 	//len -= 1;
 124:./simpleserial/simpleserial.c **** 	uint8_t tmp = next;
 403              		.loc 1 124 2 is_stmt 1 view .LVU114
 404              	.LVL42:
 125:./simpleserial/simpleserial.c **** 	while ((next < len) && tmp != 0) {
 405              		.loc 1 125 2 view .LVU115
 121:./simpleserial/simpleserial.c **** 	buf[0] = 0x00;
 406              		.loc 1 121 10 is_stmt 0 view .LVU116
 407 000a 2046     		mov	r0, r4
 408              	.LVL43:
 409              	.L31:
 410              		.loc 1 125 22 is_stmt 1 view .LVU117
 411 000c 8842     		cmp	r0, r1
 412 000e 00D2     		bcs	.L35
 413              		.loc 1 125 22 is_stmt 0 discriminator 1 view .LVU118
 414 0010 04B9     		cbnz	r4, .L33
 415              	.L35:
 126:./simpleserial/simpleserial.c **** 		tmp = buf[next];
 127:./simpleserial/simpleserial.c **** 		buf[next] = FRAME_BYTE;
 128:./simpleserial/simpleserial.c **** 		next += tmp;
 129:./simpleserial/simpleserial.c **** 	}
 130:./simpleserial/simpleserial.c **** 	return next;
 131:./simpleserial/simpleserial.c **** }
 416              		.loc 1 131 1 view .LVU119
 417 0012 30BD     		pop	{r4, r5, pc}
 418              	.LVL44:
 419              	.L33:
 126:./simpleserial/simpleserial.c **** 		tmp = buf[next];
 420              		.loc 1 126 3 is_stmt 1 view .LVU120
 126:./simpleserial/simpleserial.c **** 		tmp = buf[next];
 421              		.loc 1 126 7 is_stmt 0 view .LVU121
 422 0014 145C     		ldrb	r4, [r2, r0]	@ zero_extendqisi2
 423              	.LVL45:
 127:./simpleserial/simpleserial.c **** 		next += tmp;
 424              		.loc 1 127 3 is_stmt 1 view .LVU122
 127:./simpleserial/simpleserial.c **** 		next += tmp;
 425              		.loc 1 127 13 is_stmt 0 view .LVU123
 426 0016 1554     		strb	r5, [r2, r0]
 128:./simpleserial/simpleserial.c **** 	}
 427              		.loc 1 128 3 is_stmt 1 view .LVU124
 128:./simpleserial/simpleserial.c **** 	}
 428              		.loc 1 128 8 is_stmt 0 view .LVU125
 429 0018 0319     		adds	r3, r0, r4
 430 001a D8B2     		uxtb	r0, r3
 431              	.LVL46:
 128:./simpleserial/simpleserial.c **** 	}
 432              		.loc 1 128 8 view .LVU126
 433 001c F6E7     		b	.L31
 434              		.cfi_endproc
 435              	.LFE6:
 437              		.section	.text.simpleserial_addcmd,"ax",%progbits
 438              		.align	1
 439              		.global	simpleserial_addcmd
 440              		.syntax unified
 441              		.thumb
 442              		.thumb_func
 444              	simpleserial_addcmd:
 445              	.LVL47:
 446              	.LFB8:
 132:./simpleserial/simpleserial.c **** 
 133:./simpleserial/simpleserial.c **** // Set up the SimpleSerial module by preparing internal commands
 134:./simpleserial/simpleserial.c **** // This just adds the "v" command for now...
 135:./simpleserial/simpleserial.c **** void simpleserial_init()
 136:./simpleserial/simpleserial.c **** {
 137:./simpleserial/simpleserial.c **** 	simpleserial_addcmd('v', 0, check_version);
 138:./simpleserial/simpleserial.c ****     simpleserial_addcmd('w', 0, ss_get_commands);
 139:./simpleserial/simpleserial.c **** }
 140:./simpleserial/simpleserial.c **** 
 141:./simpleserial/simpleserial.c **** int simpleserial_addcmd(char c, unsigned int len, uint8_t (*fp)(uint8_t, uint8_t, uint8_t, uint8_t*
 142:./simpleserial/simpleserial.c **** {
 447              		.loc 1 142 1 is_stmt 1 view -0
 448              		.cfi_startproc
 449              		@ args = 0, pretend = 0, frame = 0
 450              		@ frame_needed = 0, uses_anonymous_args = 0
 143:./simpleserial/simpleserial.c **** 	if(num_commands >= MAX_SS_CMDS) {
 451              		.loc 1 143 2 view .LVU128
 142:./simpleserial/simpleserial.c **** 	if(num_commands >= MAX_SS_CMDS) {
 452              		.loc 1 142 1 is_stmt 0 view .LVU129
 453 0000 38B5     		push	{r3, r4, r5, lr}
 454              	.LCFI5:
 455              		.cfi_def_cfa_offset 16
 456              		.cfi_offset 3, -16
 457              		.cfi_offset 4, -12
 458              		.cfi_offset 5, -8
 459              		.cfi_offset 14, -4
 460              		.loc 1 143 18 view .LVU130
 461 0002 0B4D     		ldr	r5, .L42
 462 0004 2B68     		ldr	r3, [r5]
 463              		.loc 1 143 4 view .LVU131
 464 0006 0F2B     		cmp	r3, #15
 465 0008 04DD     		ble	.L37
 144:./simpleserial/simpleserial.c **** 		putch('a');
 466              		.loc 1 144 3 is_stmt 1 view .LVU132
 467 000a 6120     		movs	r0, #97
 468              	.LVL48:
 469              	.L41:
 145:./simpleserial/simpleserial.c **** 		return 1;
 146:./simpleserial/simpleserial.c **** 	}
 147:./simpleserial/simpleserial.c **** 
 148:./simpleserial/simpleserial.c **** 	if(len >= MAX_SS_LEN) {
 149:./simpleserial/simpleserial.c **** 		putch('b');
 470              		.loc 1 149 3 is_stmt 0 view .LVU133
 471 000c FFF7FEFF 		bl	putch
 472              	.LVL49:
 150:./simpleserial/simpleserial.c **** 		return 1;
 473              		.loc 1 150 3 is_stmt 1 view .LVU134
 145:./simpleserial/simpleserial.c **** 		return 1;
 474              		.loc 1 145 10 is_stmt 0 view .LVU135
 475 0010 0120     		movs	r0, #1
 476              	.L36:
 151:./simpleserial/simpleserial.c **** 	}
 152:./simpleserial/simpleserial.c **** 
 153:./simpleserial/simpleserial.c **** 	commands[num_commands].c   = c;
 154:./simpleserial/simpleserial.c **** 	commands[num_commands].len = len;
 155:./simpleserial/simpleserial.c **** 	commands[num_commands].fp  = fp;
 156:./simpleserial/simpleserial.c **** 	num_commands++;
 157:./simpleserial/simpleserial.c **** 
 158:./simpleserial/simpleserial.c **** 	return 0;
 159:./simpleserial/simpleserial.c **** }
 477              		.loc 1 159 1 view .LVU136
 478 0012 38BD     		pop	{r3, r4, r5, pc}
 479              	.LVL50:
 480              	.L37:
 148:./simpleserial/simpleserial.c **** 		putch('b');
 481              		.loc 1 148 2 is_stmt 1 view .LVU137
 148:./simpleserial/simpleserial.c **** 		putch('b');
 482              		.loc 1 148 4 is_stmt 0 view .LVU138
 483 0014 FF29     		cmp	r1, #255
 484 0016 01D9     		bls	.L39
 149:./simpleserial/simpleserial.c **** 		return 1;
 485              		.loc 1 149 3 is_stmt 1 view .LVU139
 486 0018 6220     		movs	r0, #98
 487              	.LVL51:
 149:./simpleserial/simpleserial.c **** 		return 1;
 488              		.loc 1 149 3 is_stmt 0 view .LVU140
 489 001a F7E7     		b	.L41
 490              	.LVL52:
 491              	.L39:
 153:./simpleserial/simpleserial.c **** 	commands[num_commands].len = len;
 492              		.loc 1 153 2 is_stmt 1 view .LVU141
 153:./simpleserial/simpleserial.c **** 	commands[num_commands].len = len;
 493              		.loc 1 153 29 is_stmt 0 view .LVU142
 494 001c 0C24     		movs	r4, #12
 495 001e 04FB0354 		mla	r4, r4, r3, r5
 156:./simpleserial/simpleserial.c **** 
 496              		.loc 1 156 14 view .LVU143
 497 0022 0133     		adds	r3, r3, #1
 153:./simpleserial/simpleserial.c **** 	commands[num_commands].len = len;
 498              		.loc 1 153 29 view .LVU144
 499 0024 2071     		strb	r0, [r4, #4]
 154:./simpleserial/simpleserial.c **** 	commands[num_commands].fp  = fp;
 500              		.loc 1 154 2 is_stmt 1 view .LVU145
 155:./simpleserial/simpleserial.c **** 	num_commands++;
 501              		.loc 1 155 29 is_stmt 0 view .LVU146
 502 0026 C4E90212 		strd	r1, r2, [r4, #8]
 156:./simpleserial/simpleserial.c **** 
 503              		.loc 1 156 2 is_stmt 1 view .LVU147
 156:./simpleserial/simpleserial.c **** 
 504              		.loc 1 156 14 is_stmt 0 view .LVU148
 505 002a 2B60     		str	r3, [r5]
 158:./simpleserial/simpleserial.c **** }
 506              		.loc 1 158 2 is_stmt 1 view .LVU149
 158:./simpleserial/simpleserial.c **** }
 507              		.loc 1 158 9 is_stmt 0 view .LVU150
 508 002c 0020     		movs	r0, #0
 509              	.LVL53:
 158:./simpleserial/simpleserial.c **** }
 510              		.loc 1 158 9 view .LVU151
 511 002e F0E7     		b	.L36
 512              	.L43:
 513              		.align	2
 514              	.L42:
 515 0030 00000000 		.word	.LANCHOR0
 516              		.cfi_endproc
 517              	.LFE8:
 519              		.section	.text.simpleserial_init,"ax",%progbits
 520              		.align	1
 521              		.global	simpleserial_init
 522              		.syntax unified
 523              		.thumb
 524              		.thumb_func
 526              	simpleserial_init:
 527              	.LFB7:
 136:./simpleserial/simpleserial.c **** 	simpleserial_addcmd('v', 0, check_version);
 528              		.loc 1 136 1 is_stmt 1 view -0
 529              		.cfi_startproc
 530              		@ args = 0, pretend = 0, frame = 0
 531              		@ frame_needed = 0, uses_anonymous_args = 0
 137:./simpleserial/simpleserial.c ****     simpleserial_addcmd('w', 0, ss_get_commands);
 532              		.loc 1 137 2 view .LVU153
 136:./simpleserial/simpleserial.c **** 	simpleserial_addcmd('v', 0, check_version);
 533              		.loc 1 136 1 is_stmt 0 view .LVU154
 534 0000 08B5     		push	{r3, lr}
 535              	.LCFI6:
 536              		.cfi_def_cfa_offset 8
 537              		.cfi_offset 3, -8
 538              		.cfi_offset 14, -4
 137:./simpleserial/simpleserial.c ****     simpleserial_addcmd('w', 0, ss_get_commands);
 539              		.loc 1 137 2 view .LVU155
 540 0002 064A     		ldr	r2, .L45
 541 0004 0021     		movs	r1, #0
 542 0006 7620     		movs	r0, #118
 543 0008 FFF7FEFF 		bl	simpleserial_addcmd
 544              	.LVL54:
 138:./simpleserial/simpleserial.c **** }
 545              		.loc 1 138 5 is_stmt 1 view .LVU156
 139:./simpleserial/simpleserial.c **** 
 546              		.loc 1 139 1 is_stmt 0 view .LVU157
 547 000c BDE80840 		pop	{r3, lr}
 548              	.LCFI7:
 549              		.cfi_restore 14
 550              		.cfi_restore 3
 551              		.cfi_def_cfa_offset 0
 138:./simpleserial/simpleserial.c **** }
 552              		.loc 1 138 5 view .LVU158
 553 0010 034A     		ldr	r2, .L45+4
 554 0012 0021     		movs	r1, #0
 555 0014 7720     		movs	r0, #119
 556 0016 FFF7FEBF 		b	simpleserial_addcmd
 557              	.LVL55:
 558              	.L46:
 559 001a 00BF     		.align	2
 560              	.L45:
 561 001c 00000000 		.word	check_version
 562 0020 00000000 		.word	ss_get_commands
 563              		.cfi_endproc
 564              	.LFE7:
 566              		.section	.text.simpleserial_put,"ax",%progbits
 567              		.align	1
 568              		.global	simpleserial_put
 569              		.syntax unified
 570              		.thumb
 571              		.thumb_func
 573              	simpleserial_put:
 574              	.LVL56:
 575              	.LFB10:
 160:./simpleserial/simpleserial.c **** 
 161:./simpleserial/simpleserial.c **** void simpleserial_get(void)
 162:./simpleserial/simpleserial.c **** {
 163:./simpleserial/simpleserial.c **** 	uint8_t data_buf[MAX_SS_LEN];
 164:./simpleserial/simpleserial.c **** 	uint8_t err = 0;
 165:./simpleserial/simpleserial.c **** 
 166:./simpleserial/simpleserial.c **** 	for (int i = 0; i < 4; i++) {
 167:./simpleserial/simpleserial.c **** 		data_buf[i] = getch(); //PTR, cmd, scmd, len
 168:./simpleserial/simpleserial.c **** 		if (data_buf[i] == FRAME_BYTE) {
 169:./simpleserial/simpleserial.c **** 			err = SS_ERR_FRAME_BYTE;
 170:./simpleserial/simpleserial.c **** 			goto ERROR;
 171:./simpleserial/simpleserial.c **** 		}
 172:./simpleserial/simpleserial.c **** 	}
 173:./simpleserial/simpleserial.c **** 	uint8_t next_frame = unstuff_data(data_buf, 4);
 174:./simpleserial/simpleserial.c **** 
 175:./simpleserial/simpleserial.c **** 	// check for valid command
 176:./simpleserial/simpleserial.c **** 	uint8_t c = 0;
 177:./simpleserial/simpleserial.c **** 	for(c = 0; c < num_commands; c++)
 178:./simpleserial/simpleserial.c **** 	{
 179:./simpleserial/simpleserial.c **** 		if(commands[c].c == data_buf[1])
 180:./simpleserial/simpleserial.c **** 			break;
 181:./simpleserial/simpleserial.c **** 	}
 182:./simpleserial/simpleserial.c **** 
 183:./simpleserial/simpleserial.c **** 	if (c == num_commands) {
 184:./simpleserial/simpleserial.c **** 		err = SS_ERR_CMD;
 185:./simpleserial/simpleserial.c **** 		goto ERROR;
 186:./simpleserial/simpleserial.c **** 	}
 187:./simpleserial/simpleserial.c **** 
 188:./simpleserial/simpleserial.c **** 	//check that next frame not beyond end of message
 189:./simpleserial/simpleserial.c **** 	// account for cmd, scmd, len, data, crc, end of frame
 190:./simpleserial/simpleserial.c **** 	if ((data_buf[3] + 5) < next_frame) {
 191:./simpleserial/simpleserial.c **** 		err = SS_ERR_LEN;
 192:./simpleserial/simpleserial.c **** 		goto ERROR;
 193:./simpleserial/simpleserial.c **** 	}
 194:./simpleserial/simpleserial.c **** 
 195:./simpleserial/simpleserial.c **** 	// read in data
 196:./simpleserial/simpleserial.c **** 	// eq to len + crc + frame end
 197:./simpleserial/simpleserial.c **** 	int i = 4;
 198:./simpleserial/simpleserial.c **** 	for (; i < data_buf[3] + 5; i++) {
 199:./simpleserial/simpleserial.c **** 		data_buf[i] = getch();
 200:./simpleserial/simpleserial.c **** 		if (data_buf[i] == FRAME_BYTE) {
 201:./simpleserial/simpleserial.c **** 			err = SS_ERR_FRAME_BYTE;
 202:./simpleserial/simpleserial.c **** 			goto ERROR;
 203:./simpleserial/simpleserial.c **** 		}
 204:./simpleserial/simpleserial.c **** 	}
 205:./simpleserial/simpleserial.c **** 
 206:./simpleserial/simpleserial.c **** 	//check that final byte is the FRAME_BYTE
 207:./simpleserial/simpleserial.c **** 	data_buf[i] = getch();
 208:./simpleserial/simpleserial.c **** 	if (data_buf[i] != FRAME_BYTE) {
 209:./simpleserial/simpleserial.c **** 		err = SS_ERR_LEN;
 210:./simpleserial/simpleserial.c **** 		goto ERROR;
 211:./simpleserial/simpleserial.c **** 	}
 212:./simpleserial/simpleserial.c **** 
 213:./simpleserial/simpleserial.c **** 	//fully unstuff data now
 214:./simpleserial/simpleserial.c **** 	unstuff_data(data_buf + next_frame, i - next_frame + 1);
 215:./simpleserial/simpleserial.c **** 
 216:./simpleserial/simpleserial.c **** 	//calc crc excluding original frame offset and frame end and crc
 217:./simpleserial/simpleserial.c **** 	uint8_t crc = ss_crc(data_buf+1, i-2);
 218:./simpleserial/simpleserial.c **** 	if (crc != data_buf[i-1]) {
 219:./simpleserial/simpleserial.c **** 		err = SS_ERR_CRC;
 220:./simpleserial/simpleserial.c **** 		goto ERROR;
 221:./simpleserial/simpleserial.c **** 	}
 222:./simpleserial/simpleserial.c **** 
 223:./simpleserial/simpleserial.c **** 	err = commands[c].fp(data_buf[1], data_buf[2], data_buf[3], data_buf+4);
 224:./simpleserial/simpleserial.c **** 
 225:./simpleserial/simpleserial.c **** ERROR:
 226:./simpleserial/simpleserial.c **** 	simpleserial_put('e', 0x01, &err);
 227:./simpleserial/simpleserial.c **** 	return;
 228:./simpleserial/simpleserial.c **** }
 229:./simpleserial/simpleserial.c **** 
 230:./simpleserial/simpleserial.c **** void simpleserial_put(char c, uint8_t size, uint8_t* output)
 231:./simpleserial/simpleserial.c **** {
 576              		.loc 1 231 1 is_stmt 1 view -0
 577              		.cfi_startproc
 578              		@ args = 0, pretend = 0, frame = 256
 579              		@ frame_needed = 0, uses_anonymous_args = 0
 232:./simpleserial/simpleserial.c **** 	uint8_t data_buf[MAX_SS_LEN];
 580              		.loc 1 232 2 view .LVU160
 233:./simpleserial/simpleserial.c **** 	data_buf[0] = 0x00;
 581              		.loc 1 233 2 view .LVU161
 231:./simpleserial/simpleserial.c **** 	uint8_t data_buf[MAX_SS_LEN];
 582              		.loc 1 231 1 is_stmt 0 view .LVU162
 583 0000 70B5     		push	{r4, r5, r6, lr}
 584              	.LCFI8:
 585              		.cfi_def_cfa_offset 16
 586              		.cfi_offset 4, -16
 587              		.cfi_offset 5, -12
 588              		.cfi_offset 6, -8
 589              		.cfi_offset 14, -4
 590 0002 C0B0     		sub	sp, sp, #256
 591              	.LCFI9:
 592              		.cfi_def_cfa_offset 272
 231:./simpleserial/simpleserial.c **** 	uint8_t data_buf[MAX_SS_LEN];
 593              		.loc 1 231 1 view .LVU163
 594 0004 0C46     		mov	r4, r1
 595              		.loc 1 233 14 view .LVU164
 596 0006 0025     		movs	r5, #0
 231:./simpleserial/simpleserial.c **** 	uint8_t data_buf[MAX_SS_LEN];
 597              		.loc 1 231 1 view .LVU165
 598 0008 1146     		mov	r1, r2
 599              	.LVL57:
 234:./simpleserial/simpleserial.c **** 	data_buf[1] = c;
 600              		.loc 1 234 14 view .LVU166
 601 000a 8DF80100 		strb	r0, [sp, #1]
 235:./simpleserial/simpleserial.c **** 	data_buf[2] = size;
 236:./simpleserial/simpleserial.c **** 	int i = 0;
 237:./simpleserial/simpleserial.c **** 	for (; i < size; i++) {
 238:./simpleserial/simpleserial.c **** 		data_buf[i + 3] = output[i];
 602              		.loc 1 238 19 view .LVU167
 603 000e 2246     		mov	r2, r4
 604              	.LVL58:
 605              		.loc 1 238 19 view .LVU168
 606 0010 0DF10300 		add	r0, sp, #3
 607              	.LVL59:
 235:./simpleserial/simpleserial.c **** 	data_buf[2] = size;
 608              		.loc 1 235 14 view .LVU169
 609 0014 8DF80240 		strb	r4, [sp, #2]
 233:./simpleserial/simpleserial.c **** 	data_buf[1] = c;
 610              		.loc 1 233 14 view .LVU170
 611 0018 8DF80050 		strb	r5, [sp]
 234:./simpleserial/simpleserial.c **** 	data_buf[1] = c;
 612              		.loc 1 234 2 is_stmt 1 view .LVU171
 235:./simpleserial/simpleserial.c **** 	data_buf[2] = size;
 613              		.loc 1 235 2 view .LVU172
 236:./simpleserial/simpleserial.c **** 	for (; i < size; i++) {
 614              		.loc 1 236 2 view .LVU173
 615              	.LVL60:
 237:./simpleserial/simpleserial.c **** 		data_buf[i + 3] = output[i];
 616              		.loc 1 237 2 view .LVU174
 617              		.loc 1 238 19 is_stmt 0 view .LVU175
 618 001c FFF7FEFF 		bl	memcpy
 619              	.LVL61:
 239:./simpleserial/simpleserial.c **** 	}
 240:./simpleserial/simpleserial.c **** 	data_buf[i + 3] = ss_crc(data_buf+1, size+2);
 620              		.loc 1 240 2 is_stmt 1 view .LVU176
 621              		.loc 1 240 20 is_stmt 0 view .LVU177
 622 0020 A11C     		adds	r1, r4, #2
 623 0022 C9B2     		uxtb	r1, r1
 624 0024 0DF10100 		add	r0, sp, #1
 625 0028 FFF7FEFF 		bl	ss_crc
 626              	.LVL62:
 627              		.loc 1 240 18 view .LVU178
 628 002c 0DEB0403 		add	r3, sp, r4
 241:./simpleserial/simpleserial.c **** 	data_buf[i + 4] = 0x00;
 629              		.loc 1 241 13 view .LVU179
 630 0030 261D     		adds	r6, r4, #4
 242:./simpleserial/simpleserial.c **** 	stuff_data(data_buf, i + 5);
 631              		.loc 1 242 2 view .LVU180
 632 0032 611D     		adds	r1, r4, #5
 240:./simpleserial/simpleserial.c **** 	data_buf[i + 4] = 0x00;
 633              		.loc 1 240 18 view .LVU181
 634 0034 D870     		strb	r0, [r3, #3]
 241:./simpleserial/simpleserial.c **** 	data_buf[i + 4] = 0x00;
 635              		.loc 1 241 2 is_stmt 1 view .LVU182
 636              		.loc 1 242 2 is_stmt 0 view .LVU183
 637 0036 C9B2     		uxtb	r1, r1
 638 0038 6846     		mov	r0, sp
 241:./simpleserial/simpleserial.c **** 	data_buf[i + 4] = 0x00;
 639              		.loc 1 241 18 view .LVU184
 640 003a 0DF80650 		strb	r5, [sp, r6]
 641              		.loc 1 242 2 is_stmt 1 view .LVU185
 642 003e FFF7FEFF 		bl	stuff_data
 643              	.LVL63:
 243:./simpleserial/simpleserial.c **** 	for (int i = 0; i < size + 5; i++) {
 644              		.loc 1 243 2 view .LVU186
 645              	.LBB10:
 646              		.loc 1 243 7 view .LVU187
 647              		.loc 1 243 20 view .LVU188
 648 0042 6C46     		mov	r4, sp
 649              	.LVL64:
 650              	.L48:
 244:./simpleserial/simpleserial.c **** 		putch(data_buf[i]);
 651              		.loc 1 244 3 discriminator 3 view .LVU189
 652 0044 14F8010B 		ldrb	r0, [r4], #1	@ zero_extendqisi2
 243:./simpleserial/simpleserial.c **** 	for (int i = 0; i < size + 5; i++) {
 653              		.loc 1 243 33 is_stmt 0 discriminator 3 view .LVU190
 654 0048 0135     		adds	r5, r5, #1
 655              	.LVL65:
 656              		.loc 1 244 3 discriminator 3 view .LVU191
 657 004a FFF7FEFF 		bl	putch
 658              	.LVL66:
 243:./simpleserial/simpleserial.c **** 	for (int i = 0; i < size + 5; i++) {
 659              		.loc 1 243 33 is_stmt 1 discriminator 3 view .LVU192
 243:./simpleserial/simpleserial.c **** 	for (int i = 0; i < size + 5; i++) {
 660              		.loc 1 243 20 discriminator 3 view .LVU193
 661 004e AE42     		cmp	r6, r5
 662 0050 F8DA     		bge	.L48
 663              	.LBE10:
 245:./simpleserial/simpleserial.c **** 	}
 246:./simpleserial/simpleserial.c **** }
 664              		.loc 1 246 1 is_stmt 0 view .LVU194
 665 0052 40B0     		add	sp, sp, #256
 666              	.LCFI10:
 667              		.cfi_def_cfa_offset 16
 668              		@ sp needed
 669 0054 70BD     		pop	{r4, r5, r6, pc}
 670              		.loc 1 246 1 view .LVU195
 671              		.cfi_endproc
 672              	.LFE10:
 674              		.section	.text.check_version,"ax",%progbits
 675              		.align	1
 676              		.global	check_version
 677              		.syntax unified
 678              		.thumb
 679              		.thumb_func
 681              	check_version:
 682              	.LVL67:
 683              	.LFB3:
  88:./simpleserial/simpleserial.c **** 	uint8_t ver = SS_VER;
 684              		.loc 1 88 1 is_stmt 1 view -0
 685              		.cfi_startproc
 686              		@ args = 0, pretend = 0, frame = 8
 687              		@ frame_needed = 0, uses_anonymous_args = 0
  89:./simpleserial/simpleserial.c **** 	simpleserial_put('r', 1, &ver);
 688              		.loc 1 89 2 view .LVU197
  88:./simpleserial/simpleserial.c **** 	uint8_t ver = SS_VER;
 689              		.loc 1 88 1 is_stmt 0 view .LVU198
 690 0000 07B5     		push	{r0, r1, r2, lr}
 691              	.LCFI11:
 692              		.cfi_def_cfa_offset 16
 693              		.cfi_offset 14, -4
  89:./simpleserial/simpleserial.c **** 	simpleserial_put('r', 1, &ver);
 694              		.loc 1 89 10 view .LVU199
 695 0002 0323     		movs	r3, #3
 696              	.LVL68:
  90:./simpleserial/simpleserial.c **** 	return SS_ERR_OK;
 697              		.loc 1 90 2 view .LVU200
 698 0004 0DF10702 		add	r2, sp, #7
 699              	.LVL69:
  90:./simpleserial/simpleserial.c **** 	return SS_ERR_OK;
 700              		.loc 1 90 2 view .LVU201
 701 0008 0121     		movs	r1, #1
 702              	.LVL70:
  90:./simpleserial/simpleserial.c **** 	return SS_ERR_OK;
 703              		.loc 1 90 2 view .LVU202
 704 000a 7220     		movs	r0, #114
 705              	.LVL71:
  89:./simpleserial/simpleserial.c **** 	simpleserial_put('r', 1, &ver);
 706              		.loc 1 89 10 view .LVU203
 707 000c 8DF80730 		strb	r3, [sp, #7]
  90:./simpleserial/simpleserial.c **** 	return SS_ERR_OK;
 708              		.loc 1 90 2 is_stmt 1 view .LVU204
 709 0010 FFF7FEFF 		bl	simpleserial_put
 710              	.LVL72:
  91:./simpleserial/simpleserial.c **** }
 711              		.loc 1 91 2 view .LVU205
  92:./simpleserial/simpleserial.c **** 
 712              		.loc 1 92 1 is_stmt 0 view .LVU206
 713 0014 0020     		movs	r0, #0
 714 0016 03B0     		add	sp, sp, #12
 715              	.LCFI12:
 716              		.cfi_def_cfa_offset 4
 717              		@ sp needed
 718 0018 5DF804FB 		ldr	pc, [sp], #4
 719              		.cfi_endproc
 720              	.LFE3:
 722              		.section	.text.ss_get_commands,"ax",%progbits
 723              		.align	1
 724              		.global	ss_get_commands
 725              		.syntax unified
 726              		.thumb
 727              		.thumb_func
 729              	ss_get_commands:
 730              	.LVL73:
 731              	.LFB4:
  95:./simpleserial/simpleserial.c ****     uint8_t cmd_chars[MAX_SS_CMDS];
 732              		.loc 1 95 1 is_stmt 1 view -0
 733              		.cfi_startproc
 734              		@ args = 0, pretend = 0, frame = 16
 735              		@ frame_needed = 0, uses_anonymous_args = 0
  96:./simpleserial/simpleserial.c ****     for (uint8_t i = 0; i < (num_commands & 0xFF); i++) {
 736              		.loc 1 96 5 view .LVU208
  97:./simpleserial/simpleserial.c ****         cmd_chars[i] = commands[i].c;
 737              		.loc 1 97 5 view .LVU209
 738              	.LBB11:
  97:./simpleserial/simpleserial.c ****         cmd_chars[i] = commands[i].c;
 739              		.loc 1 97 10 view .LVU210
  97:./simpleserial/simpleserial.c ****         cmd_chars[i] = commands[i].c;
 740              		.loc 1 97 10 is_stmt 0 view .LVU211
 741              	.LBE11:
  95:./simpleserial/simpleserial.c ****     uint8_t cmd_chars[MAX_SS_CMDS];
 742              		.loc 1 95 1 view .LVU212
 743 0000 30B5     		push	{r4, r5, lr}
 744              	.LCFI13:
 745              		.cfi_def_cfa_offset 12
 746              		.cfi_offset 4, -12
 747              		.cfi_offset 5, -8
 748              		.cfi_offset 14, -4
 749              	.LBB12:
  97:./simpleserial/simpleserial.c ****         cmd_chars[i] = commands[i].c;
 750              		.loc 1 97 43 view .LVU213
 751 0002 0D48     		ldr	r0, .L54
 752              	.LVL74:
  97:./simpleserial/simpleserial.c ****         cmd_chars[i] = commands[i].c;
 753              		.loc 1 97 43 view .LVU214
 754 0004 0178     		ldrb	r1, [r0]	@ zero_extendqisi2
 755              	.LVL75:
  97:./simpleserial/simpleserial.c ****         cmd_chars[i] = commands[i].c;
 756              		.loc 1 97 43 view .LVU215
 757              	.LBE12:
  95:./simpleserial/simpleserial.c ****     uint8_t cmd_chars[MAX_SS_CMDS];
 758              		.loc 1 95 1 view .LVU216
 759 0006 85B0     		sub	sp, sp, #20
 760              	.LCFI14:
 761              		.cfi_def_cfa_offset 32
 762              	.LBB13:
  97:./simpleserial/simpleserial.c ****         cmd_chars[i] = commands[i].c;
 763              		.loc 1 97 5 view .LVU217
 764 0008 0022     		movs	r2, #0
 765              	.LVL76:
  98:./simpleserial/simpleserial.c ****     }
 766              		.loc 1 98 35 view .LVU218
 767 000a 0C24     		movs	r4, #12
 768              	.LVL77:
 769              	.L52:
  97:./simpleserial/simpleserial.c ****         cmd_chars[i] = commands[i].c;
 770              		.loc 1 97 27 is_stmt 1 discriminator 1 view .LVU219
 771 000c D3B2     		uxtb	r3, r2
 772 000e 8B42     		cmp	r3, r1
 773 0010 02F10102 		add	r2, r2, #1
 774              	.LVL78:
  97:./simpleserial/simpleserial.c ****         cmd_chars[i] = commands[i].c;
 775              		.loc 1 97 27 is_stmt 0 discriminator 1 view .LVU220
 776 0014 06DB     		blt	.L53
 777              	.LBE13:
 101:./simpleserial/simpleserial.c ****     return 0x00;
 778              		.loc 1 101 5 is_stmt 1 view .LVU221
 779 0016 6A46     		mov	r2, sp
 780 0018 7220     		movs	r0, #114
 781 001a FFF7FEFF 		bl	simpleserial_put
 782              	.LVL79:
 102:./simpleserial/simpleserial.c **** 
 783              		.loc 1 102 5 view .LVU222
 104:./simpleserial/simpleserial.c **** 
 784              		.loc 1 104 1 is_stmt 0 view .LVU223
 785 001e 0020     		movs	r0, #0
 786 0020 05B0     		add	sp, sp, #20
 787              	.LCFI15:
 788              		.cfi_remember_state
 789              		.cfi_def_cfa_offset 12
 790              		@ sp needed
 791 0022 30BD     		pop	{r4, r5, pc}
 792              	.LVL80:
 793              	.L53:
 794              	.LCFI16:
 795              		.cfi_restore_state
 796              	.LBB14:
  98:./simpleserial/simpleserial.c ****     }
 797              		.loc 1 98 9 is_stmt 1 discriminator 3 view .LVU224
  98:./simpleserial/simpleserial.c ****     }
 798              		.loc 1 98 22 is_stmt 0 discriminator 3 view .LVU225
 799 0024 03F11005 		add	r5, r3, #16
  98:./simpleserial/simpleserial.c ****     }
 800              		.loc 1 98 35 discriminator 3 view .LVU226
 801 0028 04FB0303 		mla	r3, r4, r3, r0
 802              	.LVL81:
  98:./simpleserial/simpleserial.c ****     }
 803              		.loc 1 98 22 discriminator 3 view .LVU227
 804 002c 6D44     		add	r5, sp, r5
 805              	.LVL82:
  98:./simpleserial/simpleserial.c ****     }
 806              		.loc 1 98 22 discriminator 3 view .LVU228
 807 002e 1B79     		ldrb	r3, [r3, #4]	@ zero_extendqisi2
 808 0030 05F8103C 		strb	r3, [r5, #-16]
  97:./simpleserial/simpleserial.c ****         cmd_chars[i] = commands[i].c;
 809              		.loc 1 97 53 is_stmt 1 discriminator 3 view .LVU229
 810              	.LVL83:
  97:./simpleserial/simpleserial.c ****         cmd_chars[i] = commands[i].c;
 811              		.loc 1 97 53 is_stmt 0 discriminator 3 view .LVU230
 812 0034 EAE7     		b	.L52
 813              	.L55:
 814 0036 00BF     		.align	2
 815              	.L54:
 816 0038 00000000 		.word	.LANCHOR0
 817              	.LBE14:
 818              		.cfi_endproc
 819              	.LFE4:
 821              		.section	.text.simpleserial_get,"ax",%progbits
 822              		.align	1
 823              		.global	simpleserial_get
 824              		.syntax unified
 825              		.thumb
 826              		.thumb_func
 828              	simpleserial_get:
 829              	.LFB9:
 162:./simpleserial/simpleserial.c **** 	uint8_t data_buf[MAX_SS_LEN];
 830              		.loc 1 162 1 is_stmt 1 view -0
 831              		.cfi_startproc
 832              		@ args = 0, pretend = 0, frame = 264
 833              		@ frame_needed = 0, uses_anonymous_args = 0
 163:./simpleserial/simpleserial.c **** 	uint8_t err = 0;
 834              		.loc 1 163 2 view .LVU232
 164:./simpleserial/simpleserial.c **** 
 835              		.loc 1 164 2 view .LVU233
 162:./simpleserial/simpleserial.c **** 	uint8_t data_buf[MAX_SS_LEN];
 836              		.loc 1 162 1 is_stmt 0 view .LVU234
 837 0000 2DE9F047 		push	{r4, r5, r6, r7, r8, r9, r10, lr}
 838              	.LCFI17:
 839              		.cfi_def_cfa_offset 32
 840              		.cfi_offset 4, -32
 841              		.cfi_offset 5, -28
 842              		.cfi_offset 6, -24
 843              		.cfi_offset 7, -20
 844              		.cfi_offset 8, -16
 845              		.cfi_offset 9, -12
 846              		.cfi_offset 10, -8
 847              		.cfi_offset 14, -4
 848 0004 C2B0     		sub	sp, sp, #264
 849              	.LCFI18:
 850              		.cfi_def_cfa_offset 296
 164:./simpleserial/simpleserial.c **** 
 851              		.loc 1 164 10 view .LVU235
 852 0006 0025     		movs	r5, #0
 853 0008 02AE     		add	r6, sp, #8
 854 000a 8DF80750 		strb	r5, [sp, #7]
 166:./simpleserial/simpleserial.c **** 		data_buf[i] = getch(); //PTR, cmd, scmd, len
 855              		.loc 1 166 2 is_stmt 1 view .LVU236
 856              	.LBB15:
 166:./simpleserial/simpleserial.c **** 		data_buf[i] = getch(); //PTR, cmd, scmd, len
 857              		.loc 1 166 7 view .LVU237
 858              	.LVL84:
 166:./simpleserial/simpleserial.c **** 		data_buf[i] = getch(); //PTR, cmd, scmd, len
 859              		.loc 1 166 20 view .LVU238
 860 000e 3446     		mov	r4, r6
 861              	.LVL85:
 862              	.L59:
 167:./simpleserial/simpleserial.c **** 		if (data_buf[i] == FRAME_BYTE) {
 863              		.loc 1 167 3 view .LVU239
 167:./simpleserial/simpleserial.c **** 		if (data_buf[i] == FRAME_BYTE) {
 864              		.loc 1 167 17 is_stmt 0 view .LVU240
 865 0010 FFF7FEFF 		bl	getch
 866              	.LVL86:
 167:./simpleserial/simpleserial.c **** 		if (data_buf[i] == FRAME_BYTE) {
 867              		.loc 1 167 15 view .LVU241
 868 0014 06F8010B 		strb	r0, [r6], #1
 168:./simpleserial/simpleserial.c **** 			err = SS_ERR_FRAME_BYTE;
 869              		.loc 1 168 3 is_stmt 1 view .LVU242
 168:./simpleserial/simpleserial.c **** 			err = SS_ERR_FRAME_BYTE;
 870              		.loc 1 168 6 is_stmt 0 view .LVU243
 871 0018 58B9     		cbnz	r0, .L57
 872              	.LVL87:
 873              	.L64:
 169:./simpleserial/simpleserial.c **** 			goto ERROR;
 874              		.loc 1 169 4 is_stmt 1 view .LVU244
 170:./simpleserial/simpleserial.c **** 		}
 875              		.loc 1 170 4 view .LVU245
 876 001a 0520     		movs	r0, #5
 877              	.L58:
 169:./simpleserial/simpleserial.c **** 			goto ERROR;
 878              		.loc 1 169 8 is_stmt 0 view .LVU246
 879 001c 8DF80700 		strb	r0, [sp, #7]
 880              	.LBE15:
 226:./simpleserial/simpleserial.c **** 	return;
 881              		.loc 1 226 2 is_stmt 1 view .LVU247
 882 0020 0DF10702 		add	r2, sp, #7
 883 0024 0121     		movs	r1, #1
 884 0026 6520     		movs	r0, #101
 885 0028 FFF7FEFF 		bl	simpleserial_put
 886              	.LVL88:
 227:./simpleserial/simpleserial.c **** }
 887              		.loc 1 227 2 view .LVU248
 228:./simpleserial/simpleserial.c **** 
 888              		.loc 1 228 1 is_stmt 0 view .LVU249
 889 002c 42B0     		add	sp, sp, #264
 890              	.LCFI19:
 891              		.cfi_remember_state
 892              		.cfi_def_cfa_offset 32
 893              		@ sp needed
 894 002e BDE8F087 		pop	{r4, r5, r6, r7, r8, r9, r10, pc}
 895              	.LVL89:
 896              	.L57:
 897              	.LCFI20:
 898              		.cfi_restore_state
 899              	.LBB16:
 166:./simpleserial/simpleserial.c **** 		data_buf[i] = getch(); //PTR, cmd, scmd, len
 900              		.loc 1 166 26 is_stmt 1 discriminator 2 view .LVU250
 901 0032 0135     		adds	r5, r5, #1
 902              	.LVL90:
 166:./simpleserial/simpleserial.c **** 		data_buf[i] = getch(); //PTR, cmd, scmd, len
 903              		.loc 1 166 20 discriminator 2 view .LVU251
 904 0034 042D     		cmp	r5, #4
 905 0036 EBD1     		bne	.L59
 906              	.LBE16:
 173:./simpleserial/simpleserial.c **** 
 907              		.loc 1 173 2 view .LVU252
 173:./simpleserial/simpleserial.c **** 
 908              		.loc 1 173 23 is_stmt 0 view .LVU253
 909 0038 2946     		mov	r1, r5
 910 003a 2046     		mov	r0, r4
 911 003c FFF7FEFF 		bl	unstuff_data
 912              	.LVL91:
 177:./simpleserial/simpleserial.c **** 	{
 913              		.loc 1 177 15 view .LVU254
 914 0040 244F     		ldr	r7, .L74
 179:./simpleserial/simpleserial.c **** 			break;
 915              		.loc 1 179 31 view .LVU255
 916 0042 6178     		ldrb	r1, [r4, #1]	@ zero_extendqisi2
 177:./simpleserial/simpleserial.c **** 	{
 917              		.loc 1 177 15 view .LVU256
 918 0044 3A68     		ldr	r2, [r7]
 173:./simpleserial/simpleserial.c **** 
 919              		.loc 1 173 23 view .LVU257
 920 0046 8046     		mov	r8, r0
 921              	.LVL92:
 176:./simpleserial/simpleserial.c **** 	for(c = 0; c < num_commands; c++)
 922              		.loc 1 176 2 is_stmt 1 view .LVU258
 177:./simpleserial/simpleserial.c **** 	{
 923              		.loc 1 177 2 view .LVU259
 177:./simpleserial/simpleserial.c **** 	{
 924              		.loc 1 177 2 is_stmt 0 view .LVU260
 925 0048 0023     		movs	r3, #0
 179:./simpleserial/simpleserial.c **** 			break;
 926              		.loc 1 179 17 view .LVU261
 927 004a 0C20     		movs	r0, #12
 928              	.LVL93:
 929              	.L60:
 177:./simpleserial/simpleserial.c **** 	{
 930              		.loc 1 177 15 is_stmt 1 discriminator 1 view .LVU262
 931 004c 5FFA83F9 		uxtb	r9, r3
 932 0050 9145     		cmp	r9, r2
 933 0052 02DB     		blt	.L62
 183:./simpleserial/simpleserial.c **** 		err = SS_ERR_CMD;
 934              		.loc 1 183 2 view .LVU263
 183:./simpleserial/simpleserial.c **** 		err = SS_ERR_CMD;
 935              		.loc 1 183 5 is_stmt 0 view .LVU264
 936 0054 07D1     		bne	.L61
 937 0056 0120     		movs	r0, #1
 938 0058 E0E7     		b	.L58
 939              	.L62:
 179:./simpleserial/simpleserial.c **** 			break;
 940              		.loc 1 179 3 is_stmt 1 view .LVU265
 179:./simpleserial/simpleserial.c **** 			break;
 941              		.loc 1 179 17 is_stmt 0 view .LVU266
 942 005a 00FB0976 		mla	r6, r0, r9, r7
 179:./simpleserial/simpleserial.c **** 			break;
 943              		.loc 1 179 5 view .LVU267
 944 005e 0133     		adds	r3, r3, #1
 945              	.LVL94:
 179:./simpleserial/simpleserial.c **** 			break;
 946              		.loc 1 179 5 view .LVU268
 947 0060 3679     		ldrb	r6, [r6, #4]	@ zero_extendqisi2
 948 0062 8E42     		cmp	r6, r1
 949 0064 F2D1     		bne	.L60
 950              	.L61:
 190:./simpleserial/simpleserial.c **** 		err = SS_ERR_LEN;
 951              		.loc 1 190 2 is_stmt 1 view .LVU269
 190:./simpleserial/simpleserial.c **** 		err = SS_ERR_LEN;
 952              		.loc 1 190 15 is_stmt 0 view .LVU270
 953 0066 E378     		ldrb	r3, [r4, #3]	@ zero_extendqisi2
 190:./simpleserial/simpleserial.c **** 		err = SS_ERR_LEN;
 954              		.loc 1 190 19 view .LVU271
 955 0068 0533     		adds	r3, r3, #5
 190:./simpleserial/simpleserial.c **** 		err = SS_ERR_LEN;
 956              		.loc 1 190 5 view .LVU272
 957 006a 4345     		cmp	r3, r8
 958 006c 02DA     		bge	.L63
 959              	.LVL95:
 960              	.L65:
 191:./simpleserial/simpleserial.c **** 		goto ERROR;
 961              		.loc 1 191 3 is_stmt 1 view .LVU273
 192:./simpleserial/simpleserial.c **** 	}
 962              		.loc 1 192 3 view .LVU274
 963 006e 0420     		movs	r0, #4
 964 0070 D4E7     		b	.L58
 965              	.LVL96:
 966              	.L67:
 198:./simpleserial/simpleserial.c **** 		data_buf[i] = getch();
 967              		.loc 1 198 31 is_stmt 0 view .LVU275
 968 0072 3546     		mov	r5, r6
 969              	.LVL97:
 970              	.L63:
 199:./simpleserial/simpleserial.c **** 		if (data_buf[i] == FRAME_BYTE) {
 971              		.loc 1 199 3 is_stmt 1 view .LVU276
 199:./simpleserial/simpleserial.c **** 		if (data_buf[i] == FRAME_BYTE) {
 972              		.loc 1 199 17 is_stmt 0 view .LVU277
 973 0074 FFF7FEFF 		bl	getch
 974              	.LVL98:
 199:./simpleserial/simpleserial.c **** 		if (data_buf[i] == FRAME_BYTE) {
 975              		.loc 1 199 15 view .LVU278
 976 0078 6055     		strb	r0, [r4, r5]
 200:./simpleserial/simpleserial.c **** 			err = SS_ERR_FRAME_BYTE;
 977              		.loc 1 200 3 is_stmt 1 view .LVU279
 200:./simpleserial/simpleserial.c **** 			err = SS_ERR_FRAME_BYTE;
 978              		.loc 1 200 6 is_stmt 0 view .LVU280
 979 007a 0028     		cmp	r0, #0
 980 007c CDD0     		beq	.L64
 198:./simpleserial/simpleserial.c **** 		data_buf[i] = getch();
 981              		.loc 1 198 31 is_stmt 1 view .LVU281
 198:./simpleserial/simpleserial.c **** 		data_buf[i] = getch();
 982              		.loc 1 198 21 is_stmt 0 view .LVU282
 983 007e E378     		ldrb	r3, [r4, #3]	@ zero_extendqisi2
 198:./simpleserial/simpleserial.c **** 		data_buf[i] = getch();
 984              		.loc 1 198 31 view .LVU283
 985 0080 6E1C     		adds	r6, r5, #1
 986              	.LVL99:
 198:./simpleserial/simpleserial.c **** 		data_buf[i] = getch();
 987              		.loc 1 198 11 is_stmt 1 view .LVU284
 988 0082 0433     		adds	r3, r3, #4
 989 0084 B342     		cmp	r3, r6
 990 0086 F4DA     		bge	.L67
 207:./simpleserial/simpleserial.c **** 	if (data_buf[i] != FRAME_BYTE) {
 991              		.loc 1 207 2 view .LVU285
 207:./simpleserial/simpleserial.c **** 	if (data_buf[i] != FRAME_BYTE) {
 992              		.loc 1 207 16 is_stmt 0 view .LVU286
 993 0088 FFF7FEFF 		bl	getch
 994              	.LVL100:
 207:./simpleserial/simpleserial.c **** 	if (data_buf[i] != FRAME_BYTE) {
 995              		.loc 1 207 14 view .LVU287
 996 008c A055     		strb	r0, [r4, r6]
 208:./simpleserial/simpleserial.c **** 		err = SS_ERR_LEN;
 997              		.loc 1 208 2 is_stmt 1 view .LVU288
 208:./simpleserial/simpleserial.c **** 		err = SS_ERR_LEN;
 998              		.loc 1 208 5 is_stmt 0 view .LVU289
 999 008e 0028     		cmp	r0, #0
 1000 0090 EDD1     		bne	.L65
 214:./simpleserial/simpleserial.c **** 
 1001              		.loc 1 214 2 is_stmt 1 view .LVU290
 1002 0092 C8F10103 		rsb	r3, r8, #1
 1003 0096 53FA86F1 		uxtab	r1, r3, r6
 1004 009a C9B2     		uxtb	r1, r1
 214:./simpleserial/simpleserial.c **** 
 1005              		.loc 1 214 40 is_stmt 0 view .LVU291
 1006 009c 5FFA86FA 		uxtb	r10, r6
 214:./simpleserial/simpleserial.c **** 
 1007              		.loc 1 214 2 view .LVU292
 1008 00a0 04EB0800 		add	r0, r4, r8
 1009 00a4 FFF7FEFF 		bl	unstuff_data
 1010              	.LVL101:
 217:./simpleserial/simpleserial.c **** 	if (crc != data_buf[i-1]) {
 1011              		.loc 1 217 2 is_stmt 1 view .LVU293
 217:./simpleserial/simpleserial.c **** 	if (crc != data_buf[i-1]) {
 1012              		.loc 1 217 16 is_stmt 0 view .LVU294
 1013 00a8 AAF10201 		sub	r1, r10, #2
 1014 00ac C9B2     		uxtb	r1, r1
 1015 00ae 0DF10900 		add	r0, sp, #9
 1016 00b2 FFF7FEFF 		bl	ss_crc
 1017              	.LVL102:
 218:./simpleserial/simpleserial.c **** 		err = SS_ERR_CRC;
 1018              		.loc 1 218 2 is_stmt 1 view .LVU295
 218:./simpleserial/simpleserial.c **** 		err = SS_ERR_CRC;
 1019              		.loc 1 218 5 is_stmt 0 view .LVU296
 1020 00b6 635D     		ldrb	r3, [r4, r5]	@ zero_extendqisi2
 1021 00b8 8342     		cmp	r3, r0
 1022 00ba 09D1     		bne	.L68
 223:./simpleserial/simpleserial.c **** 
 1023              		.loc 1 223 2 is_stmt 1 view .LVU297
 223:./simpleserial/simpleserial.c **** 
 1024              		.loc 1 223 19 is_stmt 0 view .LVU298
 1025 00bc 0C23     		movs	r3, #12
 1026 00be 03FB0977 		mla	r7, r3, r9, r7
 223:./simpleserial/simpleserial.c **** 
 1027              		.loc 1 223 8 view .LVU299
 1028 00c2 E278     		ldrb	r2, [r4, #3]	@ zero_extendqisi2
 1029 00c4 FD68     		ldr	r5, [r7, #12]
 1030 00c6 A178     		ldrb	r1, [r4, #2]	@ zero_extendqisi2
 1031 00c8 6078     		ldrb	r0, [r4, #1]	@ zero_extendqisi2
 1032              	.LVL103:
 223:./simpleserial/simpleserial.c **** 
 1033              		.loc 1 223 8 view .LVU300
 1034 00ca 6B44     		add	r3, sp, r3
 1035 00cc A847     		blx	r5
 1036              	.LVL104:
 1037 00ce A5E7     		b	.L58
 1038              	.LVL105:
 1039              	.L68:
 223:./simpleserial/simpleserial.c **** 
 1040              		.loc 1 223 8 view .LVU301
 1041 00d0 0220     		movs	r0, #2
 1042              	.LVL106:
 223:./simpleserial/simpleserial.c **** 
 1043              		.loc 1 223 8 view .LVU302
 1044 00d2 A3E7     		b	.L58
 1045              	.L75:
 1046              		.align	2
 1047              	.L74:
 1048 00d4 00000000 		.word	.LANCHOR0
 1049              		.cfi_endproc
 1050              	.LFE9:
 1052              		.bss
 1053              		.align	2
 1054              		.set	.LANCHOR0,. + 0
 1057              	num_commands:
 1058 0000 00000000 		.space	4
 1061              	commands:
 1062 0004 00000000 		.space	192
 1062      00000000 
 1062      00000000 
 1062      00000000 
 1062      00000000 
 1063              		.text
 1064              	.Letext0:
 1065              		.file 2 "/nix/store/ys6f5rkagvk7j6mawa5fiakglv1568hl-gcc-arm-embedded-12.2.rel1/arm-none-eabi/incl
 1066              		.file 3 "/nix/store/ys6f5rkagvk7j6mawa5fiakglv1568hl-gcc-arm-embedded-12.2.rel1/arm-none-eabi/incl
 1067              		.file 4 "./simpleserial/simpleserial.h"
 1068              		.file 5 "./hal/stm32f3/stm32f3_hal.h"
 1069              		.file 6 "<built-in>"