   1              		.cpu cortex-m4
   2              		.arch armv7e-m
   3              		.fpu softvfp
   4              		.eabi_attribute 20, 1
   5              		.eabi_attribute 21, 1
   6              		.eabi_attribute 23, 3
   7              		.eabi_attribute 24, 1
   8              		.eabi_attribute 25, 1
   9              		.eabi_attribute 26, 1
  10              		.eabi_attribute 30, 4
  11              		.eabi_attribute 34, 1
  12              		.eabi_attribute 18, 4
  13              		.file	"stm32f3_hal.c"
  14              		.text
  15              	.Ltext0:
  16              		.cfi_sections	.debug_frame
  17              		.file 1 "./hal/stm32f3/stm32f3_hal.c"
  18              		.section	.text.platform_init,"ax",%progbits
  19              		.align	1
  20              		.global	platform_init
  21              		.syntax unified
  22              		.thumb
  23              		.thumb_func
  25              	platform_init:
  26              	.LFB126:
   1:./hal/stm32f3/stm32f3_hal.c **** 
   2:./hal/stm32f3/stm32f3_hal.c **** #include "stm32f3_hal.h"
   3:./hal/stm32f3/stm32f3_hal.c **** #include "stm32f3_hal_lowlevel.h"
   4:./hal/stm32f3/stm32f3_hal.c **** #include "stm32f3xx_hal_rcc.h"
   5:./hal/stm32f3/stm32f3_hal.c **** #include "stm32f3xx_hal_gpio.h"
   6:./hal/stm32f3/stm32f3_hal.c **** #include "stm32f3xx_hal_dma.h"
   7:./hal/stm32f3/stm32f3_hal.c **** #include "stm32f3xx_hal_uart.h"
   8:./hal/stm32f3/stm32f3_hal.c **** 
   9:./hal/stm32f3/stm32f3_hal.c **** UART_HandleTypeDef UartHandle;
  10:./hal/stm32f3/stm32f3_hal.c **** 
  11:./hal/stm32f3/stm32f3_hal.c **** 
  12:./hal/stm32f3/stm32f3_hal.c **** void platform_init(void)
  13:./hal/stm32f3/stm32f3_hal.c **** {
  27              		.loc 1 13 1 view -0
  28              		.cfi_startproc
  29              		@ args = 0, pretend = 0, frame = 88
  30              		@ frame_needed = 0, uses_anonymous_args = 0
  14:./hal/stm32f3/stm32f3_hal.c ****   //HAL_Init();
  15:./hal/stm32f3/stm32f3_hal.c **** 
  16:./hal/stm32f3/stm32f3_hal.c ****   #ifdef USE_INTERNAL_CLK
  17:./hal/stm32f3/stm32f3_hal.c ****      RCC_OscInitTypeDef RCC_OscInitStruct;
  18:./hal/stm32f3/stm32f3_hal.c ****      RCC_OscInitStruct.OscillatorType = RCC_OSCILLATORTYPE_HSI;
  19:./hal/stm32f3/stm32f3_hal.c ****      RCC_OscInitStruct.HSEState       = RCC_HSE_OFF;
  20:./hal/stm32f3/stm32f3_hal.c ****      RCC_OscInitStruct.HSIState       = RCC_HSI_ON;
  21:./hal/stm32f3/stm32f3_hal.c ****      RCC_OscInitStruct.PLL.PLLSource  = RCC_PLL_NONE;
  22:./hal/stm32f3/stm32f3_hal.c ****      HAL_RCC_OscConfig(&RCC_OscInitStruct);
  23:./hal/stm32f3/stm32f3_hal.c **** 
  24:./hal/stm32f3/stm32f3_hal.c ****      RCC_ClkInitTypeDef RCC_ClkInitStruct;
  25:./hal/stm32f3/stm32f3_hal.c ****      RCC_ClkInitStruct.ClockType      = (RCC_CLOCKTYPE_SYSCLK | RCC_CLOCKTYPE_HCLK | RCC_CLOCKTYPE_
  26:./hal/stm32f3/stm32f3_hal.c ****      RCC_ClkInitStruct.SYSCLKSource   = RCC_SYSCLKSOURCE_HSI;
  27:./hal/stm32f3/stm32f3_hal.c ****      RCC_ClkInitStruct.AHBCLKDivider  = RCC_SYSCLK_DIV1;
  28:./hal/stm32f3/stm32f3_hal.c ****      RCC_ClkInitStruct.APB1CLKDivider = RCC_HCLK_DIV1;
  29:./hal/stm32f3/stm32f3_hal.c ****      RCC_ClkInitStruct.APB2CLKDivider = RCC_HCLK_DIV1;
  30:./hal/stm32f3/stm32f3_hal.c ****      uint32_t flash_latency = 0;
  31:./hal/stm32f3/stm32f3_hal.c ****      HAL_RCC_ClockConfig(&RCC_ClkInitStruct, flash_latency);
  32:./hal/stm32f3/stm32f3_hal.c ****   #else
  33:./hal/stm32f3/stm32f3_hal.c ****      RCC_OscInitTypeDef RCC_OscInitStruct;
  31              		.loc 1 33 6 view .LVU1
  34:./hal/stm32f3/stm32f3_hal.c ****      RCC_OscInitStruct.OscillatorType = RCC_OSCILLATORTYPE_HSE | RCC_OSCILLATORTYPE_HSI;
  32              		.loc 1 34 6 view .LVU2
  13:./hal/stm32f3/stm32f3_hal.c ****   //HAL_Init();
  33              		.loc 1 13 1 is_stmt 0 view .LVU3
  34 0000 70B5     		push	{r4, r5, r6, lr}
  35              	.LCFI0:
  36              		.cfi_def_cfa_offset 16
  37              		.cfi_offset 4, -16
  38              		.cfi_offset 5, -12
  39              		.cfi_offset 6, -8
  40              		.cfi_offset 14, -4
  41 0002 96B0     		sub	sp, sp, #88
  42              	.LCFI1:
  43              		.cfi_def_cfa_offset 104
  35:./hal/stm32f3/stm32f3_hal.c ****      RCC_OscInitStruct.HSEState       = RCC_HSE_BYPASS;
  36:./hal/stm32f3/stm32f3_hal.c ****      RCC_OscInitStruct.HSIState       = RCC_HSI_OFF;
  44              		.loc 1 36 39 view .LVU4
  45 0004 0024     		movs	r4, #0
  35:./hal/stm32f3/stm32f3_hal.c ****      RCC_OscInitStruct.HSEState       = RCC_HSE_BYPASS;
  46              		.loc 1 35 39 view .LVU5
  47 0006 0326     		movs	r6, #3
  48 0008 4FF4A023 		mov	r3, #327680
  37:./hal/stm32f3/stm32f3_hal.c ****      RCC_OscInitStruct.PLL.PLLSource  = RCC_PLL_NONE;
  38:./hal/stm32f3/stm32f3_hal.c ****      HAL_RCC_OscConfig(&RCC_OscInitStruct);
  49              		.loc 1 38 6 view .LVU6
  50 000c 0CA8     		add	r0, sp, #48
  39:./hal/stm32f3/stm32f3_hal.c **** 
  40:./hal/stm32f3/stm32f3_hal.c ****      RCC_ClkInitTypeDef RCC_ClkInitStruct;
  41:./hal/stm32f3/stm32f3_hal.c ****      RCC_ClkInitStruct.ClockType      = (RCC_CLOCKTYPE_SYSCLK | RCC_CLOCKTYPE_HCLK | RCC_CLOCKTYPE_
  42:./hal/stm32f3/stm32f3_hal.c ****      RCC_ClkInitStruct.SYSCLKSource   = RCC_SYSCLKSOURCE_HSE;
  51              		.loc 1 42 39 view .LVU7
  52 000e 0125     		movs	r5, #1
  35:./hal/stm32f3/stm32f3_hal.c ****      RCC_OscInitStruct.HSIState       = RCC_HSI_OFF;
  53              		.loc 1 35 39 view .LVU8
  54 0010 CDE90C63 		strd	r6, r3, [sp, #48]
  36:./hal/stm32f3/stm32f3_hal.c ****      RCC_OscInitStruct.PLL.PLLSource  = RCC_PLL_NONE;
  55              		.loc 1 36 6 is_stmt 1 view .LVU9
  36:./hal/stm32f3/stm32f3_hal.c ****      RCC_OscInitStruct.PLL.PLLSource  = RCC_PLL_NONE;
  56              		.loc 1 36 39 is_stmt 0 view .LVU10
  57 0014 1094     		str	r4, [sp, #64]
  37:./hal/stm32f3/stm32f3_hal.c ****      HAL_RCC_OscConfig(&RCC_OscInitStruct);
  58              		.loc 1 37 6 is_stmt 1 view .LVU11
  37:./hal/stm32f3/stm32f3_hal.c ****      HAL_RCC_OscConfig(&RCC_OscInitStruct);
  59              		.loc 1 37 39 is_stmt 0 view .LVU12
  60 0016 1494     		str	r4, [sp, #80]
  38:./hal/stm32f3/stm32f3_hal.c **** 
  61              		.loc 1 38 6 is_stmt 1 view .LVU13
  62 0018 FFF7FEFF 		bl	HAL_RCC_OscConfig
  63              	.LVL0:
  40:./hal/stm32f3/stm32f3_hal.c ****      RCC_ClkInitStruct.ClockType      = (RCC_CLOCKTYPE_SYSCLK | RCC_CLOCKTYPE_HCLK | RCC_CLOCKTYPE_
  64              		.loc 1 40 6 view .LVU14
  41:./hal/stm32f3/stm32f3_hal.c ****      RCC_ClkInitStruct.SYSCLKSource   = RCC_SYSCLKSOURCE_HSE;
  65              		.loc 1 41 6 view .LVU15
  66              		.loc 1 42 39 is_stmt 0 view .LVU16
  67 001c 0F23     		movs	r3, #15
  43:./hal/stm32f3/stm32f3_hal.c ****      RCC_ClkInitStruct.AHBCLKDivider  = RCC_SYSCLK_DIV1;
  44:./hal/stm32f3/stm32f3_hal.c ****      RCC_ClkInitStruct.APB1CLKDivider = RCC_HCLK_DIV1;
  45:./hal/stm32f3/stm32f3_hal.c ****      RCC_ClkInitStruct.APB2CLKDivider = RCC_HCLK_DIV1;
  46:./hal/stm32f3/stm32f3_hal.c ****      uint32_t flash_latency = 0;
  47:./hal/stm32f3/stm32f3_hal.c ****      HAL_RCC_ClockConfig(&RCC_ClkInitStruct, flash_latency);
  68              		.loc 1 47 6 view .LVU17
  69 001e 2146     		mov	r1, r4
  70 0020 02A8     		add	r0, sp, #8
  42:./hal/stm32f3/stm32f3_hal.c ****      RCC_ClkInitStruct.AHBCLKDivider  = RCC_SYSCLK_DIV1;
  71              		.loc 1 42 39 view .LVU18
  72 0022 CDE90235 		strd	r3, r5, [sp, #8]
  43:./hal/stm32f3/stm32f3_hal.c ****      RCC_ClkInitStruct.AHBCLKDivider  = RCC_SYSCLK_DIV1;
  73              		.loc 1 43 6 is_stmt 1 view .LVU19
  44:./hal/stm32f3/stm32f3_hal.c ****      RCC_ClkInitStruct.APB2CLKDivider = RCC_HCLK_DIV1;
  74              		.loc 1 44 39 is_stmt 0 view .LVU20
  75 0026 CDE90444 		strd	r4, r4, [sp, #16]
  45:./hal/stm32f3/stm32f3_hal.c ****      uint32_t flash_latency = 0;
  76              		.loc 1 45 6 is_stmt 1 view .LVU21
  45:./hal/stm32f3/stm32f3_hal.c ****      uint32_t flash_latency = 0;
  77              		.loc 1 45 39 is_stmt 0 view .LVU22
  78 002a 0694     		str	r4, [sp, #24]
  46:./hal/stm32f3/stm32f3_hal.c ****      HAL_RCC_ClockConfig(&RCC_ClkInitStruct, flash_latency);
  79              		.loc 1 46 6 is_stmt 1 view .LVU23
  80              	.LVL1:
  81              		.loc 1 47 6 view .LVU24
  82 002c FFF7FEFF 		bl	HAL_RCC_ClockConfig
  83              	.LVL2:
  48:./hal/stm32f3/stm32f3_hal.c ****   #endif
  49:./hal/stm32f3/stm32f3_hal.c **** 
  50:./hal/stm32f3/stm32f3_hal.c **** 
  51:./hal/stm32f3/stm32f3_hal.c **** 
  52:./hal/stm32f3/stm32f3_hal.c **** 
  53:./hal/stm32f3/stm32f3_hal.c **** #if (PLATFORM==CWLITEARM)
  54:./hal/stm32f3/stm32f3_hal.c ****   __HAL_RCC_GPIOC_CLK_ENABLE();
  84              		.loc 1 54 3 view .LVU25
  85              	.LBB2:
  86              		.loc 1 54 3 view .LVU26
  87              		.loc 1 54 3 view .LVU27
  88 0030 114B     		ldr	r3, .L2
  89 0032 5A69     		ldr	r2, [r3, #20]
  90 0034 42F40022 		orr	r2, r2, #524288
  91 0038 5A61     		str	r2, [r3, #20]
  92              		.loc 1 54 3 view .LVU28
  93 003a 5B69     		ldr	r3, [r3, #20]
  94              	.LBE2:
  55:./hal/stm32f3/stm32f3_hal.c ****   GPIO_InitTypeDef GpioInit;
  56:./hal/stm32f3/stm32f3_hal.c ****   GpioInit.Pin       = GPIO_PIN_13 | GPIO_PIN_14;
  57:./hal/stm32f3/stm32f3_hal.c ****   GpioInit.Mode      = GPIO_MODE_OUTPUT_PP;
  58:./hal/stm32f3/stm32f3_hal.c ****   GpioInit.Pull      = GPIO_NOPULL;
  59:./hal/stm32f3/stm32f3_hal.c ****   GpioInit.Speed     = GPIO_SPEED_FREQ_HIGH;
  95              		.loc 1 59 22 is_stmt 0 view .LVU29
  96 003c CDE90946 		strd	r4, r6, [sp, #36]
  97              	.LBB3:
  54:./hal/stm32f3/stm32f3_hal.c ****   GPIO_InitTypeDef GpioInit;
  98              		.loc 1 54 3 view .LVU30
  99 0040 03F40023 		and	r3, r3, #524288
 100              	.LBE3:
  60:./hal/stm32f3/stm32f3_hal.c ****   HAL_GPIO_Init(GPIOC, &GpioInit);
 101              		.loc 1 60 3 view .LVU31
 102 0044 0D4C     		ldr	r4, .L2+4
 103              	.LBB4:
  54:./hal/stm32f3/stm32f3_hal.c ****   GPIO_InitTypeDef GpioInit;
 104              		.loc 1 54 3 view .LVU32
 105 0046 0193     		str	r3, [sp, #4]
  54:./hal/stm32f3/stm32f3_hal.c ****   GPIO_InitTypeDef GpioInit;
 106              		.loc 1 54 3 is_stmt 1 view .LVU33
 107 0048 019B     		ldr	r3, [sp, #4]
 108              	.LBE4:
  54:./hal/stm32f3/stm32f3_hal.c ****   GPIO_InitTypeDef GpioInit;
 109              		.loc 1 54 3 view .LVU34
  55:./hal/stm32f3/stm32f3_hal.c ****   GPIO_InitTypeDef GpioInit;
 110              		.loc 1 55 3 view .LVU35
  56:./hal/stm32f3/stm32f3_hal.c ****   GpioInit.Mode      = GPIO_MODE_OUTPUT_PP;
 111              		.loc 1 56 3 view .LVU36
 112              		.loc 1 60 3 is_stmt 0 view .LVU37
 113 004a 07A9     		add	r1, sp, #28
  56:./hal/stm32f3/stm32f3_hal.c ****   GpioInit.Mode      = GPIO_MODE_OUTPUT_PP;
 114              		.loc 1 56 22 view .LVU38
 115 004c 4FF4C043 		mov	r3, #24576
 116              		.loc 1 60 3 view .LVU39
 117 0050 2046     		mov	r0, r4
  57:./hal/stm32f3/stm32f3_hal.c ****   GpioInit.Pull      = GPIO_NOPULL;
 118              		.loc 1 57 22 view .LVU40
 119 0052 CDE90735 		strd	r3, r5, [sp, #28]
  58:./hal/stm32f3/stm32f3_hal.c ****   GpioInit.Speed     = GPIO_SPEED_FREQ_HIGH;
 120              		.loc 1 58 3 is_stmt 1 view .LVU41
 121              		.loc 1 60 3 view .LVU42
 122 0056 FFF7FEFF 		bl	HAL_GPIO_Init
 123              	.LVL3:
  61:./hal/stm32f3/stm32f3_hal.c **** 
  62:./hal/stm32f3/stm32f3_hal.c ****   HAL_GPIO_WritePin(GPIOC, GPIO_PIN_13, SET);
 124              		.loc 1 62 3 view .LVU43
 125 005a 2A46     		mov	r2, r5
 126 005c 2046     		mov	r0, r4
 127 005e 4FF40051 		mov	r1, #8192
 128 0062 FFF7FEFF 		bl	HAL_GPIO_WritePin
 129              	.LVL4:
  63:./hal/stm32f3/stm32f3_hal.c ****   HAL_GPIO_WritePin(GPIOC, GPIO_PIN_14, SET);
 130              		.loc 1 63 3 view .LVU44
 131 0066 2A46     		mov	r2, r5
 132 0068 4FF48041 		mov	r1, #16384
 133 006c 2046     		mov	r0, r4
 134 006e FFF7FEFF 		bl	HAL_GPIO_WritePin
 135              	.LVL5:
  64:./hal/stm32f3/stm32f3_hal.c **** #endif
  65:./hal/stm32f3/stm32f3_hal.c **** }
 136              		.loc 1 65 1 is_stmt 0 view .LVU45
 137 0072 16B0     		add	sp, sp, #88
 138              	.LCFI2:
 139              		.cfi_def_cfa_offset 16
 140              		@ sp needed
 141 0074 70BD     		pop	{r4, r5, r6, pc}
 142              	.L3:
 143 0076 00BF     		.align	2
 144              	.L2:
 145 0078 00100240 		.word	1073876992
 146 007c 00080048 		.word	1207961600
 147              		.cfi_endproc
 148              	.LFE126:
 150              		.section	.text.init_uart,"ax",%progbits
 151              		.align	1
 152              		.global	init_uart
 153              		.syntax unified
 154              		.thumb
 155              		.thumb_func
 157              	init_uart:
 158              	.LFB127:
  66:./hal/stm32f3/stm32f3_hal.c **** 
  67:./hal/stm32f3/stm32f3_hal.c **** void init_uart(void)
  68:./hal/stm32f3/stm32f3_hal.c **** {
 159              		.loc 1 68 1 is_stmt 1 view -0
 160              		.cfi_startproc
 161              		@ args = 0, pretend = 0, frame = 32
 162              		@ frame_needed = 0, uses_anonymous_args = 0
  69:./hal/stm32f3/stm32f3_hal.c ****   GPIO_InitTypeDef GpioInit;
 163              		.loc 1 69 3 view .LVU47
  70:./hal/stm32f3/stm32f3_hal.c ****   GpioInit.Pin       = GPIO_PIN_9 | GPIO_PIN_10;
 164              		.loc 1 70 3 view .LVU48
  68:./hal/stm32f3/stm32f3_hal.c ****   GPIO_InitTypeDef GpioInit;
 165              		.loc 1 68 1 is_stmt 0 view .LVU49
 166 0000 10B5     		push	{r4, lr}
 167              	.LCFI3:
 168              		.cfi_def_cfa_offset 8
 169              		.cfi_offset 4, -8
 170              		.cfi_offset 14, -4
  71:./hal/stm32f3/stm32f3_hal.c ****   GpioInit.Mode      = GPIO_MODE_AF_PP;
 171              		.loc 1 71 22 view .LVU50
 172 0002 4FF4C062 		mov	r2, #1536
  68:./hal/stm32f3/stm32f3_hal.c ****   GPIO_InitTypeDef GpioInit;
 173              		.loc 1 68 1 view .LVU51
 174 0006 88B0     		sub	sp, sp, #32
 175              	.LCFI4:
 176              		.cfi_def_cfa_offset 40
 177              		.loc 1 71 22 view .LVU52
 178 0008 0223     		movs	r3, #2
 179 000a CDE90323 		strd	r2, r3, [sp, #12]
  72:./hal/stm32f3/stm32f3_hal.c ****   GpioInit.Pull      = GPIO_PULLUP;
 180              		.loc 1 72 3 is_stmt 1 view .LVU53
  73:./hal/stm32f3/stm32f3_hal.c ****   GpioInit.Speed     = GPIO_SPEED_FREQ_HIGH;
 181              		.loc 1 73 22 is_stmt 0 view .LVU54
 182 000e 0121     		movs	r1, #1
 183 0010 0323     		movs	r3, #3
 184 0012 CDE90513 		strd	r1, r3, [sp, #20]
  74:./hal/stm32f3/stm32f3_hal.c ****   GpioInit.Alternate = GPIO_AF7_USART1;
 185              		.loc 1 74 3 is_stmt 1 view .LVU55
 186              	.LBB5:
  75:./hal/stm32f3/stm32f3_hal.c ****   __GPIOA_CLK_ENABLE();
 187              		.loc 1 75 3 is_stmt 0 view .LVU56
 188 0016 164C     		ldr	r4, .L5
 189              	.LBE5:
  74:./hal/stm32f3/stm32f3_hal.c ****   GpioInit.Alternate = GPIO_AF7_USART1;
 190              		.loc 1 74 22 view .LVU57
 191 0018 0723     		movs	r3, #7
 192 001a 0793     		str	r3, [sp, #28]
 193              		.loc 1 75 3 is_stmt 1 view .LVU58
 194              	.LBB6:
 195              		.loc 1 75 3 view .LVU59
 196              		.loc 1 75 3 view .LVU60
 197 001c 6369     		ldr	r3, [r4, #20]
 198 001e 43F40033 		orr	r3, r3, #131072
 199 0022 6361     		str	r3, [r4, #20]
 200              		.loc 1 75 3 view .LVU61
 201 0024 6369     		ldr	r3, [r4, #20]
 202 0026 03F40033 		and	r3, r3, #131072
 203 002a 0193     		str	r3, [sp, #4]
 204              		.loc 1 75 3 view .LVU62
 205              	.LBE6:
  76:./hal/stm32f3/stm32f3_hal.c ****   HAL_GPIO_Init(GPIOA, &GpioInit);
 206              		.loc 1 76 3 is_stmt 0 view .LVU63
 207 002c 03A9     		add	r1, sp, #12
 208 002e 4FF09040 		mov	r0, #1207959552
 209              	.LBB7:
  75:./hal/stm32f3/stm32f3_hal.c ****   __GPIOA_CLK_ENABLE();
 210              		.loc 1 75 3 view .LVU64
 211 0032 019B     		ldr	r3, [sp, #4]
 212              	.LBE7:
  75:./hal/stm32f3/stm32f3_hal.c ****   __GPIOA_CLK_ENABLE();
 213              		.loc 1 75 3 is_stmt 1 view .LVU65
 214              		.loc 1 76 3 view .LVU66
 215 0034 FFF7FEFF 		bl	HAL_GPIO_Init
 216              	.LVL6:
  77:./hal/stm32f3/stm32f3_hal.c **** 
  78:./hal/stm32f3/stm32f3_hal.c ****   UartHandle.Instance        = USART1;
 217              		.loc 1 78 3 view .LVU67
 218              		.loc 1 78 30 is_stmt 0 view .LVU68
 219 0038 0E48     		ldr	r0, .L5+4
  79:./hal/stm32f3/stm32f3_hal.c ****   #if SS_VER==SS_VER_2_1
  80:./hal/stm32f3/stm32f3_hal.c ****   UartHandle.Init.BaudRate   = 230400;
 220              		.loc 1 80 30 view .LVU69
 221 003a DFF83CC0 		ldr	ip, .L5+8
 222 003e 4FF46133 		mov	r3, #230400
 223 0042 C0E900C3 		strd	ip, r3, [r0]
  81:./hal/stm32f3/stm32f3_hal.c ****   #else
  82:./hal/stm32f3/stm32f3_hal.c ****   UartHandle.Init.BaudRate   = 38400;
  83:./hal/stm32f3/stm32f3_hal.c ****   #endif
  84:./hal/stm32f3/stm32f3_hal.c ****   UartHandle.Init.WordLength = UART_WORDLENGTH_8B;
 224              		.loc 1 84 3 is_stmt 1 view .LVU70
 225              		.loc 1 84 30 is_stmt 0 view .LVU71
 226 0046 0023     		movs	r3, #0
  85:./hal/stm32f3/stm32f3_hal.c ****   UartHandle.Init.StopBits   = UART_STOPBITS_1;
 227              		.loc 1 85 30 view .LVU72
 228 0048 C0E90233 		strd	r3, r3, [r0, #8]
  86:./hal/stm32f3/stm32f3_hal.c ****   UartHandle.Init.Parity     = UART_PARITY_NONE;
 229              		.loc 1 86 3 is_stmt 1 view .LVU73
 230              		.loc 1 86 30 is_stmt 0 view .LVU74
 231 004c 0361     		str	r3, [r0, #16]
  87:./hal/stm32f3/stm32f3_hal.c ****   UartHandle.Init.HwFlowCtl  = UART_HWCONTROL_NONE;
 232              		.loc 1 87 3 is_stmt 1 view .LVU75
 233              		.loc 1 87 30 is_stmt 0 view .LVU76
 234 004e 8361     		str	r3, [r0, #24]
  88:./hal/stm32f3/stm32f3_hal.c ****   UartHandle.Init.Mode       = UART_MODE_TX_RX;
 235              		.loc 1 88 3 is_stmt 1 view .LVU77
 236              		.loc 1 88 30 is_stmt 0 view .LVU78
 237 0050 0C23     		movs	r3, #12
 238 0052 4361     		str	r3, [r0, #20]
  89:./hal/stm32f3/stm32f3_hal.c ****   __USART1_CLK_ENABLE();
 239              		.loc 1 89 3 is_stmt 1 view .LVU79
 240              	.LBB8:
 241              		.loc 1 89 3 view .LVU80
 242              		.loc 1 89 3 view .LVU81
 243 0054 A369     		ldr	r3, [r4, #24]
 244 0056 43F48043 		orr	r3, r3, #16384
 245 005a A361     		str	r3, [r4, #24]
 246              		.loc 1 89 3 view .LVU82
 247 005c A369     		ldr	r3, [r4, #24]
 248 005e 03F48043 		and	r3, r3, #16384
 249 0062 0293     		str	r3, [sp, #8]
 250              		.loc 1 89 3 view .LVU83
 251 0064 029B     		ldr	r3, [sp, #8]
 252              	.LBE8:
 253              		.loc 1 89 3 view .LVU84
  90:./hal/stm32f3/stm32f3_hal.c ****   HAL_UART_Init(&UartHandle);
 254              		.loc 1 90 3 view .LVU85
 255 0066 FFF7FEFF 		bl	HAL_UART_Init
 256              	.LVL7:
  91:./hal/stm32f3/stm32f3_hal.c **** }
 257              		.loc 1 91 1 is_stmt 0 view .LVU86
 258 006a 08B0     		add	sp, sp, #32
 259              	.LCFI5:
 260              		.cfi_def_cfa_offset 8
 261              		@ sp needed
 262 006c 10BD     		pop	{r4, pc}
 263              	.L6:
 264 006e 00BF     		.align	2
 265              	.L5:
 266 0070 00100240 		.word	1073876992
 267 0074 00000000 		.word	.LANCHOR0
 268 0078 00380140 		.word	1073821696
 269              		.cfi_endproc
 270              	.LFE127:
 272              		.section	.text.trigger_setup,"ax",%progbits
 273              		.align	1
 274              		.global	trigger_setup
 275              		.syntax unified
 276              		.thumb
 277              		.thumb_func
 279              	trigger_setup:
 280              	.LFB128:
  92:./hal/stm32f3/stm32f3_hal.c **** 
  93:./hal/stm32f3/stm32f3_hal.c **** void trigger_setup(void)
  94:./hal/stm32f3/stm32f3_hal.c **** {
 281              		.loc 1 94 1 is_stmt 1 view -0
 282              		.cfi_startproc
 283              		@ args = 0, pretend = 0, frame = 24
 284              		@ frame_needed = 0, uses_anonymous_args = 0
  95:./hal/stm32f3/stm32f3_hal.c ****   __HAL_RCC_GPIOA_CLK_ENABLE();
 285              		.loc 1 95 3 view .LVU88
 286              	.LBB9:
 287              		.loc 1 95 3 view .LVU89
 288              		.loc 1 95 3 view .LVU90
 289 0000 104B     		ldr	r3, .L8
 290              	.LBE9:
  94:./hal/stm32f3/stm32f3_hal.c ****   __HAL_RCC_GPIOA_CLK_ENABLE();
 291              		.loc 1 94 1 is_stmt 0 view .LVU91
 292 0002 30B5     		push	{r4, r5, lr}
 293              	.LCFI6:
 294              		.cfi_def_cfa_offset 12
 295              		.cfi_offset 4, -12
 296              		.cfi_offset 5, -8
 297              		.cfi_offset 14, -4
 298              	.LBB10:
 299              		.loc 1 95 3 view .LVU92
 300 0004 5A69     		ldr	r2, [r3, #20]
 301 0006 42F40032 		orr	r2, r2, #131072
 302 000a 5A61     		str	r2, [r3, #20]
 303              		.loc 1 95 3 is_stmt 1 view .LVU93
 304 000c 5B69     		ldr	r3, [r3, #20]
 305              	.LBE10:
  94:./hal/stm32f3/stm32f3_hal.c ****   __HAL_RCC_GPIOA_CLK_ENABLE();
 306              		.loc 1 94 1 is_stmt 0 view .LVU94
 307 000e 87B0     		sub	sp, sp, #28
 308              	.LCFI7:
 309              		.cfi_def_cfa_offset 40
 310              	.LBB11:
 311              		.loc 1 95 3 view .LVU95
 312 0010 03F40033 		and	r3, r3, #131072
 313 0014 0093     		str	r3, [sp]
 314              		.loc 1 95 3 is_stmt 1 view .LVU96
 315 0016 009B     		ldr	r3, [sp]
 316              	.LBE11:
 317              		.loc 1 95 3 view .LVU97
  96:./hal/stm32f3/stm32f3_hal.c **** 
  97:./hal/stm32f3/stm32f3_hal.c ****   GPIO_InitTypeDef GpioInit;
 318              		.loc 1 97 3 view .LVU98
  98:./hal/stm32f3/stm32f3_hal.c ****   GpioInit.Pin       = GPIO_PIN_12;
 319              		.loc 1 98 3 view .LVU99
  99:./hal/stm32f3/stm32f3_hal.c ****   GpioInit.Mode      = GPIO_MODE_OUTPUT_PP;
 320              		.loc 1 99 22 is_stmt 0 view .LVU100
 321 0018 4FF48054 		mov	r4, #4096
 322 001c 0123     		movs	r3, #1
 323 001e CDE90143 		strd	r4, r3, [sp, #4]
 100:./hal/stm32f3/stm32f3_hal.c ****   GpioInit.Pull      = GPIO_NOPULL;
 324              		.loc 1 100 3 is_stmt 1 view .LVU101
 101:./hal/stm32f3/stm32f3_hal.c ****   GpioInit.Speed     = GPIO_SPEED_FREQ_HIGH;
 325              		.loc 1 101 22 is_stmt 0 view .LVU102
 326 0022 0025     		movs	r5, #0
 327 0024 0323     		movs	r3, #3
 102:./hal/stm32f3/stm32f3_hal.c ****   HAL_GPIO_Init(GPIOA, &GpioInit);
 328              		.loc 1 102 3 view .LVU103
 329 0026 01A9     		add	r1, sp, #4
 330 0028 4FF09040 		mov	r0, #1207959552
 101:./hal/stm32f3/stm32f3_hal.c ****   GpioInit.Speed     = GPIO_SPEED_FREQ_HIGH;
 331              		.loc 1 101 22 view .LVU104
 332 002c CDE90353 		strd	r5, r3, [sp, #12]
 333              		.loc 1 102 3 is_stmt 1 view .LVU105
 334 0030 FFF7FEFF 		bl	HAL_GPIO_Init
 335              	.LVL8:
 103:./hal/stm32f3/stm32f3_hal.c **** 
 104:./hal/stm32f3/stm32f3_hal.c ****   HAL_GPIO_WritePin(GPIOA, GPIO_PIN_12, RESET);
 336              		.loc 1 104 3 view .LVU106
 337 0034 2A46     		mov	r2, r5
 338 0036 2146     		mov	r1, r4
 339 0038 4FF09040 		mov	r0, #1207959552
 340 003c FFF7FEFF 		bl	HAL_GPIO_WritePin
 341              	.LVL9:
 105:./hal/stm32f3/stm32f3_hal.c **** }
 342              		.loc 1 105 1 is_stmt 0 view .LVU107
 343 0040 07B0     		add	sp, sp, #28
 344              	.LCFI8:
 345              		.cfi_def_cfa_offset 12
 346              		@ sp needed
 347 0042 30BD     		pop	{r4, r5, pc}
 348              	.L9:
 349              		.align	2
 350              	.L8:
 351 0044 00100240 		.word	1073876992
 352              		.cfi_endproc
 353              	.LFE128:
 355              		.section	.text.trigger_high,"ax",%progbits
 356              		.align	1
 357              		.global	trigger_high
 358              		.syntax unified
 359              		.thumb
 360              		.thumb_func
 362              	trigger_high:
 363              	.LFB129:
 106:./hal/stm32f3/stm32f3_hal.c **** 
 107:./hal/stm32f3/stm32f3_hal.c **** void trigger_high(void)
 108:./hal/stm32f3/stm32f3_hal.c **** {
 364              		.loc 1 108 1 is_stmt 1 view -0
 365              		.cfi_startproc
 366              		@ args = 0, pretend = 0, frame = 0
 367              		@ frame_needed = 0, uses_anonymous_args = 0
 368              		@ link register save eliminated.
 109:./hal/stm32f3/stm32f3_hal.c ****   HAL_GPIO_WritePin(GPIOA, GPIO_PIN_12, SET);
 369              		.loc 1 109 3 view .LVU109
 370 0000 0122     		movs	r2, #1
 371 0002 4FF48051 		mov	r1, #4096
 372 0006 4FF09040 		mov	r0, #1207959552
 373 000a FFF7FEBF 		b	HAL_GPIO_WritePin
 374              	.LVL10:
 375              		.cfi_endproc
 376              	.LFE129:
 378              		.section	.text.trigger_low,"ax",%progbits
 379              		.align	1
 380              		.global	trigger_low
 381              		.syntax unified
 382              		.thumb
 383              		.thumb_func
 385              	trigger_low:
 386              	.LFB130:
 110:./hal/stm32f3/stm32f3_hal.c **** }
 111:./hal/stm32f3/stm32f3_hal.c **** 
 112:./hal/stm32f3/stm32f3_hal.c **** void trigger_low(void)
 113:./hal/stm32f3/stm32f3_hal.c **** {
 387              		.loc 1 113 1 view -0
 388              		.cfi_startproc
 389              		@ args = 0, pretend = 0, frame = 0
 390              		@ frame_needed = 0, uses_anonymous_args = 0
 391              		@ link register save eliminated.
 114:./hal/stm32f3/stm32f3_hal.c ****   HAL_GPIO_WritePin(GPIOA, GPIO_PIN_12, RESET);
 392              		.loc 1 114 3 view .LVU111
 393 0000 0022     		movs	r2, #0
 394 0002 4FF48051 		mov	r1, #4096
 395 0006 4FF09040 		mov	r0, #1207959552
 396 000a FFF7FEBF 		b	HAL_GPIO_WritePin
 397              	.LVL11:
 398              		.cfi_endproc
 399              	.LFE130:
 401              		.section	.text.getch,"ax",%progbits
 402              		.align	1
 403              		.global	getch
 404              		.syntax unified
 405              		.thumb
 406              		.thumb_func
 408              	getch:
 409              	.LFB131:
 115:./hal/stm32f3/stm32f3_hal.c **** }
 116:./hal/stm32f3/stm32f3_hal.c **** 
 117:./hal/stm32f3/stm32f3_hal.c **** char getch(void)
 118:./hal/stm32f3/stm32f3_hal.c **** {
 410              		.loc 1 118 1 view -0
 411              		.cfi_startproc
 412              		@ args = 0, pretend = 0, frame = 8
 413              		@ frame_needed = 0, uses_anonymous_args = 0
 119:./hal/stm32f3/stm32f3_hal.c ****   uint8_t d;
 414              		.loc 1 119 3 view .LVU113
 120:./hal/stm32f3/stm32f3_hal.c ****   while (HAL_UART_Receive(&UartHandle, &d, 1, 5000) != HAL_OK)
 415              		.loc 1 120 3 view .LVU114
 118:./hal/stm32f3/stm32f3_hal.c ****   uint8_t d;
 416              		.loc 1 118 1 is_stmt 0 view .LVU115
 417 0000 37B5     		push	{r0, r1, r2, r4, r5, lr}
 418              	.LCFI9:
 419              		.cfi_def_cfa_offset 24
 420              		.cfi_offset 4, -12
 421              		.cfi_offset 5, -8
 422              		.cfi_offset 14, -4
 423              		.loc 1 120 10 view .LVU116
 424 0002 0A4D     		ldr	r5, .L15
 121:./hal/stm32f3/stm32f3_hal.c ****     USART1->ICR |= (1 << 3);
 425              		.loc 1 121 11 view .LVU117
 426 0004 0A4C     		ldr	r4, .L15+4
 427              	.L13:
 120:./hal/stm32f3/stm32f3_hal.c ****   while (HAL_UART_Receive(&UartHandle, &d, 1, 5000) != HAL_OK)
 428              		.loc 1 120 53 is_stmt 1 view .LVU118
 120:./hal/stm32f3/stm32f3_hal.c ****   while (HAL_UART_Receive(&UartHandle, &d, 1, 5000) != HAL_OK)
 429              		.loc 1 120 10 is_stmt 0 view .LVU119
 430 0006 41F28833 		movw	r3, #5000
 431 000a 0122     		movs	r2, #1
 432 000c 0DF10701 		add	r1, sp, #7
 433 0010 2846     		mov	r0, r5
 434 0012 FFF7FEFF 		bl	HAL_UART_Receive
 435              	.LVL12:
 120:./hal/stm32f3/stm32f3_hal.c ****   while (HAL_UART_Receive(&UartHandle, &d, 1, 5000) != HAL_OK)
 436              		.loc 1 120 53 view .LVU120
 437 0016 18B9     		cbnz	r0, .L14
 122:./hal/stm32f3/stm32f3_hal.c ****   //putch(d);
 123:./hal/stm32f3/stm32f3_hal.c ****   return d;
 438              		.loc 1 123 3 is_stmt 1 view .LVU121
 124:./hal/stm32f3/stm32f3_hal.c **** }
 439              		.loc 1 124 1 is_stmt 0 view .LVU122
 440 0018 9DF80700 		ldrb	r0, [sp, #7]	@ zero_extendqisi2
 441 001c 03B0     		add	sp, sp, #12
 442              	.LCFI10:
 443              		.cfi_remember_state
 444              		.cfi_def_cfa_offset 12
 445              		@ sp needed
 446 001e 30BD     		pop	{r4, r5, pc}
 447              	.L14:
 448              	.LCFI11:
 449              		.cfi_restore_state
 121:./hal/stm32f3/stm32f3_hal.c ****     USART1->ICR |= (1 << 3);
 450              		.loc 1 121 5 is_stmt 1 view .LVU123
 121:./hal/stm32f3/stm32f3_hal.c ****     USART1->ICR |= (1 << 3);
 451              		.loc 1 121 11 is_stmt 0 view .LVU124
 452 0020 236A     		ldr	r3, [r4, #32]
 121:./hal/stm32f3/stm32f3_hal.c ****     USART1->ICR |= (1 << 3);
 453              		.loc 1 121 17 view .LVU125
 454 0022 43F00803 		orr	r3, r3, #8
 455 0026 2362     		str	r3, [r4, #32]
 456 0028 EDE7     		b	.L13
 457              	.L16:
 458 002a 00BF     		.align	2
 459              	.L15:
 460 002c 00000000 		.word	.LANCHOR0
 461 0030 00380140 		.word	1073821696
 462              		.cfi_endproc
 463              	.LFE131:
 465              		.section	.text.putch,"ax",%progbits
 466              		.align	1
 467              		.global	putch
 468              		.syntax unified
 469              		.thumb
 470              		.thumb_func
 472              	putch:
 473              	.LVL13:
 474              	.LFB132:
 125:./hal/stm32f3/stm32f3_hal.c **** 
 126:./hal/stm32f3/stm32f3_hal.c **** void putch(char c)
 127:./hal/stm32f3/stm32f3_hal.c **** {
 475              		.loc 1 127 1 is_stmt 1 view -0
 476              		.cfi_startproc
 477              		@ args = 0, pretend = 0, frame = 8
 478              		@ frame_needed = 0, uses_anonymous_args = 0
 128:./hal/stm32f3/stm32f3_hal.c ****   uint8_t d  = c;
 479              		.loc 1 128 3 view .LVU127
 127:./hal/stm32f3/stm32f3_hal.c ****   uint8_t d  = c;
 480              		.loc 1 127 1 is_stmt 0 view .LVU128
 481 0000 07B5     		push	{r0, r1, r2, lr}
 482              	.LCFI12:
 483              		.cfi_def_cfa_offset 16
 484              		.cfi_offset 14, -4
 129:./hal/stm32f3/stm32f3_hal.c ****   HAL_UART_Transmit(&UartHandle,  &d, 1, 5000);
 485              		.loc 1 129 3 view .LVU129
 486 0002 41F28833 		movw	r3, #5000
 128:./hal/stm32f3/stm32f3_hal.c ****   uint8_t d  = c;
 487              		.loc 1 128 11 view .LVU130
 488 0006 8DF80700 		strb	r0, [sp, #7]
 489              		.loc 1 129 3 is_stmt 1 view .LVU131
 490 000a 0122     		movs	r2, #1
 491 000c 0DF10701 		add	r1, sp, #7
 492 0010 0248     		ldr	r0, .L18
 493              	.LVL14:
 494              		.loc 1 129 3 is_stmt 0 view .LVU132
 495 0012 FFF7FEFF 		bl	HAL_UART_Transmit
 496              	.LVL15:
 130:./hal/stm32f3/stm32f3_hal.c **** }
 497              		.loc 1 130 1 view .LVU133
 498 0016 03B0     		add	sp, sp, #12
 499              	.LCFI13:
 500              		.cfi_def_cfa_offset 4
 501              		@ sp needed
 502 0018 5DF804FB 		ldr	pc, [sp], #4
 503              	.L19:
 504              		.align	2
 505              	.L18:
 506 001c 00000000 		.word	.LANCHOR0
 507              		.cfi_endproc
 508              	.LFE132:
 510              		.section	.text.change_err_led,"ax",%progbits
 511              		.align	1
 512              		.global	change_err_led
 513              		.syntax unified
 514              		.thumb
 515              		.thumb_func
 517              	change_err_led:
 518              	.LVL16:
 519              	.LFB133:
 131:./hal/stm32f3/stm32f3_hal.c **** #if (PLATFORM==CWLITEARM)
 132:./hal/stm32f3/stm32f3_hal.c **** void change_err_led(unsigned int x)
 133:./hal/stm32f3/stm32f3_hal.c **** {
 520              		.loc 1 133 1 is_stmt 1 view -0
 521              		.cfi_startproc
 522              		@ args = 0, pretend = 0, frame = 0
 523              		@ frame_needed = 0, uses_anonymous_args = 0
 524              		@ link register save eliminated.
 134:./hal/stm32f3/stm32f3_hal.c ****     if (x)
 525              		.loc 1 134 5 view .LVU135
 526              		.loc 1 134 8 is_stmt 0 view .LVU136
 527 0000 28B1     		cbz	r0, .L21
 135:./hal/stm32f3/stm32f3_hal.c ****          HAL_GPIO_WritePin(GPIOC, GPIO_PIN_13, RESET);
 528              		.loc 1 135 10 is_stmt 1 view .LVU137
 529 0002 0022     		movs	r2, #0
 530              	.L22:
 136:./hal/stm32f3/stm32f3_hal.c ****     else
 137:./hal/stm32f3/stm32f3_hal.c ****          HAL_GPIO_WritePin(GPIOC, GPIO_PIN_13, SET);
 531              		.loc 1 137 10 is_stmt 0 view .LVU138
 532 0004 0348     		ldr	r0, .L23
 533              	.LVL17:
 534              		.loc 1 137 10 view .LVU139
 535 0006 4FF40051 		mov	r1, #8192
 536 000a FFF7FEBF 		b	HAL_GPIO_WritePin
 537              	.LVL18:
 538              	.L21:
 539              		.loc 1 137 10 is_stmt 1 view .LVU140
 540 000e 0122     		movs	r2, #1
 541 0010 F8E7     		b	.L22
 542              	.L24:
 543 0012 00BF     		.align	2
 544              	.L23:
 545 0014 00080048 		.word	1207961600
 546              		.cfi_endproc
 547              	.LFE133:
 549              		.section	.text.change_ok_led,"ax",%progbits
 550              		.align	1
 551              		.global	change_ok_led
 552              		.syntax unified
 553              		.thumb
 554              		.thumb_func
 556              	change_ok_led:
 557              	.LVL19:
 558              	.LFB134:
 138:./hal/stm32f3/stm32f3_hal.c **** }
 139:./hal/stm32f3/stm32f3_hal.c **** 
 140:./hal/stm32f3/stm32f3_hal.c **** void change_ok_led(unsigned int x)
 141:./hal/stm32f3/stm32f3_hal.c **** {
 559              		.loc 1 141 1 view -0
 560              		.cfi_startproc
 561              		@ args = 0, pretend = 0, frame = 0
 562              		@ frame_needed = 0, uses_anonymous_args = 0
 563              		@ link register save eliminated.
 142:./hal/stm32f3/stm32f3_hal.c ****      if (x)
 564              		.loc 1 142 6 view .LVU142
 565              		.loc 1 142 9 is_stmt 0 view .LVU143
 566 0000 28B1     		cbz	r0, .L26
 143:./hal/stm32f3/stm32f3_hal.c ****           HAL_GPIO_WritePin(GPIOC, GPIO_PIN_14, RESET);
 567              		.loc 1 143 11 is_stmt 1 view .LVU144
 568 0002 0022     		movs	r2, #0
 569              	.L27:
 144:./hal/stm32f3/stm32f3_hal.c ****      else
 145:./hal/stm32f3/stm32f3_hal.c ****           HAL_GPIO_WritePin(GPIOC, GPIO_PIN_14, SET);
 570              		.loc 1 145 11 is_stmt 0 view .LVU145
 571 0004 0348     		ldr	r0, .L28
 572              	.LVL20:
 573              		.loc 1 145 11 view .LVU146
 574 0006 4FF48041 		mov	r1, #16384
 575 000a FFF7FEBF 		b	HAL_GPIO_WritePin
 576              	.LVL21:
 577              	.L26:
 578              		.loc 1 145 11 is_stmt 1 view .LVU147
 579 000e 0122     		movs	r2, #1
 580 0010 F8E7     		b	.L27
 581              	.L29:
 582 0012 00BF     		.align	2
 583              	.L28:
 584 0014 00080048 		.word	1207961600
 585              		.cfi_endproc
 586              	.LFE134:
 588              		.global	UartHandle
 589              		.bss
 590              		.align	2
 591              		.set	.LANCHOR0,. + 0
 594              	UartHandle:
 595 0000 00000000 		.space	112
 595      00000000 
 595      00000000 
 595      00000000 
 595      00000000 
 596              		.text
 597              	.Letext0:
 598              		.file 2 "/nix/store/ys6f5rkagvk7j6mawa5fiakglv1568hl-gcc-arm-embedded-12.2.rel1/arm-none-eabi/incl
 599              		.file 3 "/nix/store/ys6f5rkagvk7j6mawa5fiakglv1568hl-gcc-arm-embedded-12.2.rel1/arm-none-eabi/incl
 600              		.file 4 "./hal/stm32f3/CMSIS/device/stm32f303xc.h"
 601              		.file 5 "./hal/stm32f3/CMSIS/device/stm32f3xx.h"
 602              		.file 6 "./hal/stm32f3/stm32f3xx_hal_def.h"
 603              		.file 7 "./hal/stm32f3/stm32f3xx_hal_rcc.h"
 604              		.file 8 "./hal/stm32f3/stm32f3xx_hal_gpio.h"
 605              		.file 9 "./hal/stm32f3/stm32f3xx_hal_dma.h"
 606              		.file 10 "./hal/stm32f3/stm32f3xx_hal_uart.h"